(i__main__
Benchmark
p1
(dp2
S'tests'
p3
(dp4
S'SpecialInstanceAttribute'
p5
(iLookups
SpecialInstanceAttribute
p6
(dp7
S'operations'
p8
I120
sS'overhead_times'
p9
(lp10
F0.0016047477722167969
aF0.001603400707244873
aF0.0016033530235290527
aF0.0016071438789367677
asS'calibration_runs'
p11
I4
sS'timer'
p12
S'time.time'
p13
sS'times'
p14
(lp15
F0.64771081209182735
asS'version'
p16
F2
sS'warp'
p17
I10
sS'rounds'
p18
I10000
sS'last_timing'
p19
(F0.64771081209182735
F0.64931416511535645
F0.0016033530235290527
tp20
sbsS'PythonFunctionCalls'
p21
(iCalls
PythonFunctionCalls
p22
(dp23
g8
I55
sg9
(lp24
F0.00096019506454467771
aF0.0009610414505004883
aF0.00095884799957275386
aF0.00095740556716918947
asg11
I4
sg12
g13
sg14
(lp25
F0.49765356779098513
asg16
F2
sg17
I10
sg18
I6000
sg19
(F0.49765356779098513
F0.4986109733581543
F0.00095740556716918947
tp26
sbsS'CompareFloatsIntegers'
p27
(iNumbers
CompareFloatsIntegers
p28
(dp29
g8
I150
sg9
(lp30
F0.00095419883728027339
aF0.00095574855804443355
aF0.00095435380935668943
aF0.00099964141845703129
asg11
I4
sg12
g13
sg14
(lp31
F0.54371662139892574
asg16
F2
sg17
I10
sg18
I6000
sg19
(F0.54371662139892574
F0.54467082023620605
F0.00095419883728027339
tp32
sbsS'PythonMethodCalls'
p33
(iCalls
PythonMethodCalls
p34
(dp35
g8
I75
sg9
(lp36
F0.000492095947265625
aF0.00048965215682983398
aF0.00049064159393310549
aF0.00048954486846923832
asg11
I4
sg12
g13
sg14
(lp37
F0.57252733707427983
asg16
F2
sg17
I10
sg18
I3000
sg19
(F0.57252733707427983
F0.57301688194274902
F0.00048954486846923832
tp38
sbsS'NestedListComprehensions'
p39
(iLists
NestedListComprehensions
p40
(dp41
g8
I6
sg9
(lp42
F0.00032198429107666016
aF0.00032078027725219728
aF0.00032154321670532229
aF0.0003214836120605469
asg11
I4
sg12
g13
sg14
(lp43
F0.56600726842880245
asg16
F2
sg17
I10
sg18
I2000
sg19
(F0.56600726842880245
F0.56632804870605469
F0.00032078027725219728
tp44
sbsS'SecondSubmoduleImport'
p45
(iImports
SecondSubmoduleImport
p46
(dp47
g8
I25
sg9
(lp48
F0.00063438415527343754
aF0.00063358545303344722
aF0.0006335020065307617
aF0.00063693523406982422
asg11
I4
sg12
g13
sg14
(lp49
F0.68865153789520261
asg16
F2
sg17
I10
sg18
I4000
sg19
(F0.68865153789520261
F0.6892850399017334
F0.0006335020065307617
tp50
sbsS'DictWithIntegerKeys'
p51
(iDict
DictWithIntegerKeys
p52
(dp53
g8
I60
sg9
(lp54
F0.0031908869743347166
aF0.0031876325607299804
aF0.0031881332397460938
aF0.0031872391700744629
asg11
I4
sg12
g13
sg14
(lp55
F0.51272577047348022
asg16
F2
sg17
I10
sg18
I20000
sg19
(F0.51272577047348022
F0.51591300964355469
F0.0031872391700744629
tp56
sbsS'UnicodeSlicing'
p57
(iUnicode
UnicodeSlicing
p58
(dp59
g8
I35
sg9
(lp60
F0.0024131417274475099
aF0.0024086356163024901
aF0.0024074435234069822
aF0.0024080872535705566
asg11
I4
sg12
g13
sg14
(lp61
F0.60182963609695439
asg16
F2
sg17
I10
sg18
I14000
sg19
(F0.60182963609695439
F0.60423707962036133
F0.0024074435234069822
tp62
sbsS'NestedForLoops'
p63
(iConstructs
NestedForLoops
p64
(dp65
g8
I50000
sg9
(lp66
F7.168054580688476e-05
aF7.1144104003906245e-05
aF7.252693176269531e-05
aF7.1239471435546878e-05
asg11
I4
sg12
g13
sg14
(lp67
F0.46102967262268069
asg16
F2
sg17
I10
sg18
I30
sg19
(F0.46102967262268069
F0.46110081672668457
F7.1144104003906245e-05
tp68
sbsS'UnicodePredicates'
p69
(iUnicode
UnicodePredicates
p70
(dp71
g8
I45
sg9
(lp72
F0.010677587985992432
aF0.010662436485290527
aF0.010661935806274414
aF0.010665488243103028
asg11
I4
sg12
g13
sg14
(lp73
F0.42809309959411623
asg16
F2
sg17
I10
sg18
I12000
sg19
(F0.42809309959411623
F0.43875503540039062
F0.010661935806274414
tp74
sbsS'ForLoops'
p75
(iConstructs
ForLoops
p76
(dp77
g8
I25
sg9
(lp78
F0.00022944211959838868
aF0.00022954940795898436
aF0.00022324323654174805
aF0.00021785497665405273
asg11
I4
sg12
g13
sg14
(lp79
F0.36394625902175903
asg16
F2
sg17
I10
sg18
I1000
sg19
(F0.36394625902175903
F0.36416411399841309
F0.00021785497665405273
tp80
sbsS'ConcatStrings'
p81
(iStrings
ConcatStrings
p82
(dp83
g8
I50
sg9
(lp84
F0.0019236445426940919
aF0.0019221901893615723
aF0.0019208431243896485
aF0.0019198894500732423
asg11
I4
sg12
g13
sg14
(lp85
F0.99251422882080076
asg16
F2
sg17
I10
sg18
I10000
sg19
(F0.99251422882080076
F0.99443411827087402
F0.0019198894500732423
tp86
sbsS'SecondPackageImport'
p87
(iImports
SecondPackageImport
p88
(dp89
g8
I25
sg9
(lp90
F0.00063484907150268555
aF0.00063550472259521484
aF0.00063569545745849614
aF0.00063494443893432619
asg11
I4
sg12
g13
sg14
(lp91
F0.5715060830116272
asg16
F2
sg17
I10
sg18
I4000
sg19
(F0.5715060830116272
F0.57214093208312988
F0.00063484907150268555
tp92
sbsS'CompareIntegers'
p93
(iNumbers
CompareIntegers
p94
(dp95
g8
I150
sg9
(lp96
F0.0019132375717163086
aF0.0019222021102905274
aF0.0019114017486572266
aF0.0019106030464172362
asg11
I4
sg12
g13
sg14
(lp97
F0.43940337896347048
asg16
F2
sg17
I10
sg18
I12000
sg19
(F0.43940337896347048
F0.4413139820098877
F0.0019106030464172362
tp98
sbsS'CreateStringsWithConcat'
p99
(iStrings
CreateStringsWithConcat
p100
(dp101
g8
I50
sg9
(lp102
F0.0031882882118225097
aF0.0031869769096374511
aF0.0031865358352661131
aF0.0031864762306213377
asg11
I4
sg12
g13
sg14
(lp103
F0.57020162343978886
asg16
F2
sg17
I10
sg18
I20000
sg19
(F0.57020162343978886
F0.57338809967041016
F0.0031864762306213377
tp104
sbsS'SmallLists'
p105
(iLists
SmallLists
p106
(dp107
g8
I85
sg9
(lp108
F0.0012729525566101073
aF0.001272594928741455
aF0.0012734532356262207
aF0.0012732386589050294
asg11
I4
sg12
g13
sg14
(lp109
F0.51253350973129275
asg16
F2
sg17
I10
sg18
I8000
sg19
(F0.51253350973129275
F0.51380610466003418
F0.001272594928741455
tp110
sbsS'CompareUnicode'
p111
(iUnicode
CompareUnicode
p112
(dp113
g8
I50
sg9
(lp114
F0.0024488449096679689
aF0.0024450898170471193
aF0.0024434328079223633
aF0.0024428963661193848
asg11
I4
sg12
g13
sg14
(lp115
F0.43078511953353882
asg16
F2
sg17
I10
sg18
I15000
sg19
(F0.43078511953353882
F0.4332280158996582
F0.0024428963661193848
tp116
sbsS'SimpleListManipulation'
p117
(iLists
SimpleListManipulation
p118
(dp119
g8
I90
sg9
(lp120
F0.0020721793174743653
aF0.0020736336708068849
aF0.0020718812942504884
aF0.0020724415779113771
asg11
I4
sg12
g13
sg14
(lp121
F0.38369224071502683
asg16
F2
sg17
I10
sg18
I13000
sg19
(F0.38369224071502683
F0.38576412200927734
F0.0020718812942504884
tp122
sbsS'DictWithFloatKeys'
p123
(iDict
DictWithFloatKeys
p124
(dp125
g8
I60
sg9
(lp126
F0.0023899435997009276
aF0.0023892521858215332
aF0.0023900389671325682
aF0.0023892402648925783
asg11
I4
sg12
g13
sg14
(lp127
F0.56703157424926753
asg16
F2
sg17
I10
sg18
I15000
sg19
(F0.56703157424926753
F0.56942081451416016
F0.0023892402648925783
tp128
sbsS'CreateNewInstances'
p129
(iNewInstances
CreateNewInstances
p130
(dp131
g8
I14
sg9
(lp132
F0.0012677550315856934
aF0.0012535452842712402
aF0.0012694478034973144
aF0.001272296905517578
asg11
I4
sg12
g13
sg14
(lp133
F0.45253449678421021
asg16
F2
sg17
I10
sg18
I6000
sg19
(F0.45253449678421021
F0.45378804206848145
F0.0012535452842712402
tp134
sbsS'TryExcept'
p135
(iExceptions
TryExcept
p136
(dp137
g8
I150
sg9
(lp138
F0.0023902416229248046
aF0.0023899912834167481
aF0.0023892879486083984
aF0.0023892521858215332
asg11
I4
sg12
g13
sg14
(lp139
F0.3810388445854187
asg16
F2
sg17
I10
sg18
I15000
sg19
(F0.3810388445854187
F0.38342809677124023
F0.0023892521858215332
tp140
sbsS'ComplexPythonFunctionCalls'
p141
(iCalls
ComplexPythonFunctionCalls
p142
(dp143
g8
I20
sg9
(lp144
F0.0016006469726562501
aF0.0015973925590515136
aF0.0015979528427124024
aF0.0016189932823181153
asg11
I4
sg12
g13
sg14
(lp145
F0.5614454865455627
asg16
F2
sg17
I10
sg18
I10000
sg19
(F0.5614454865455627
F0.56304287910461426
F0.0015973925590515136
tp146
sbsS'TryRaiseExcept'
p147
(iExceptions
TryRaiseExcept
p148
(dp149
g8
I8
sg9
(lp150
F0.001273202896118164
aF0.0012742042541503905
aF0.0012748479843139649
aF0.0012726902961730957
asg11
I4
sg12
g13
sg14
(lp151
F0.4162082552909851
asg16
F2
sg17
I10
sg18
I8000
sg19
(F0.4162082552909851
F0.4174809455871582
F0.0012726902961730957
tp152
sbsS'IfThenElse'
p153
(iConstructs
IfThenElse
p154
(dp155
g8
I90
sg9
(lp156
F0.0023901939392089845
aF0.0023896932601928712
aF0.0023917436599731447
aF0.0023977518081665038
asg11
I4
sg12
g13
sg14
(lp157
F0.32755229473114011
asg16
F2
sg17
I10
sg18
I15000
sg19
(F0.32755229473114011
F0.32994198799133301
F0.0023896932601928712
tp158
sbsS'NormalInstanceAttribute'
p159
(iLookups
NormalInstanceAttribute
p160
(dp161
g8
I120
sg9
(lp162
F0.0016047000885009766
aF0.001603245735168457
aF0.0016024470329284667
aF0.0016023874282836913
asg11
I4
sg12
g13
sg14
(lp163
F0.41966774463653567
asg16
F2
sg17
I10
sg18
I10000
sg19
(F0.41966774463653567
F0.42127013206481934
F0.0016023874282836913
tp164
sbsS'BuiltinFunctionCalls'
p165
(iCalls
BuiltinFunctionCalls
p166
(dp167
g8
I85
sg9
(lp168
F0.00095995664596557615
aF0.00095599889755249023
aF0.00095463991165161137
aF0.00095515251159667964
asg11
I4
sg12
g13
sg14
(lp169
F0.56141637563705449
asg16
F2
sg17
I10
sg18
I6000
sg19
(F0.56141637563705449
F0.56237101554870605
F0.00095463991165161137
tp170
sbsS'UnicodeMappings'
p171
(iUnicode
UnicodeMappings
p172
(dp173
g8
I36
sg9
(lp174
F0.0020269036293029787
aF0.0020046353340148924
aF0.0020038366317749025
aF0.0020095467567443847
asg11
I4
sg12
g13
sg14
(lp175
F0.32133324146270753
asg16
F2
sg17
I10
sg18
I1000
sg19
(F0.32133324146270753
F0.32333707809448242
F0.0020038366317749025
tp176
sbsS'CompareFloats'
p177
(iNumbers
CompareFloats
p178
(dp179
g8
I150
sg9
(lp180
F0.0012733817100524902
aF0.0012757301330566407
aF0.0012734293937683105
aF0.0012726902961730957
asg11
I4
sg12
g13
sg14
(lp181
F0.5709242701530457
asg16
F2
sg17
I10
sg18
I8000
sg19
(F0.5709242701530457
F0.57219696044921875
F0.0012726902961730957
tp182
sbsS'StringMappings'
p183
(iStrings
StringMappings
p184
(dp185
g8
I36
sg9
(lp186
F0.0016001820564270019
aF0.0015969276428222656
aF0.0015944957733154297
aF0.0015953779220581055
asg11
I4
sg12
g13
sg14
(lp187
F0.57927970886230473
asg16
F2
sg17
I10
sg18
I7000
sg19
(F0.57927970886230473
F0.58087420463562012
F0.0015944957733154297
tp188
sbsS'TryFinally'
p189
(iWith
TryFinally
p190
(dp191
g8
I20
sg9
(lp192
F0.0012763381004333497
aF0.0012748479843139649
aF0.0012747406959533691
aF0.0012755990028381348
asg11
I4
sg12
g13
sg14
(lp193
F0.50572546720504763
asg16
F2
sg17
I10
sg18
I8000
sg19
(F0.50572546720504763
F0.50700020790100098
F0.0012747406959533691
tp194
sbsS'Recursion'
p195
(iCalls
Recursion
p196
(dp197
g8
I5
sg9
(lp198
F0.0015928983688354493
aF0.0015927910804748534
aF0.0015919923782348633
aF0.0015918970108032226
asg11
I4
sg12
g13
sg14
(lp199
F0.72331502437591555
asg16
F2
sg17
I10
sg18
I10000
sg19
(F0.72331502437591555
F0.72490692138671875
F0.0015918970108032226
tp200
sbsS'SimpleLongArithmetic'
p201
(iArithmetic
SimpleLongArithmetic
p202
(dp203
g8
I110
sg9
(lp204
F0.00095407962799072261
aF0.0009545326232910156
aF0.0009543299674987793
aF0.00095423460006713865
asg11
I4
sg12
g13
sg14
(lp205
F0.41962893009185792
asg16
F2
sg17
I10
sg18
I6000
sg19
(F0.41962893009185792
F0.42058300971984863
F0.00095407962799072261
tp206
sbsS'SimpleDictManipulation'
p207
(iDict
SimpleDictManipulation
p208
(dp209
g8
I120
sg9
(lp210
F0.0015957951545715332
aF0.0015933990478515625
aF0.0016002535820007324
aF0.0015936493873596191
asg11
I4
sg12
g13
sg14
(lp211
F0.53768057823181148
asg16
F2
sg17
I10
sg18
I10000
sg19
(F0.53768057823181148
F0.53927397727966309
F0.0015933990478515625
tp212
sbsS'WithRaiseExcept'
p213
(iWith
WithRaiseExcept
p214
(dp215
g8
I8
sg9
(lp216
F0.001595151424407959
aF0.0015975475311279298
aF0.0015946030616760254
aF0.0015944480895996095
asg11
I4
sg12
g13
sg14
(lp217
F0.8658576965332031
asg16
F2
sg17
I10
sg18
I10000
sg19
(F0.8658576965332031
F0.86745214462280273
F0.0015944480895996095
tp218
sbsS'UnicodeProperties'
p219
(iUnicode
UnicodeProperties
p220
(dp221
g8
I40
sg9
(lp222
F0.0088861942291259769
aF0.0089066386222839359
aF0.0088860869407653802
aF0.0088824868202209469
asg11
I4
sg12
g13
sg14
(lp223
F0.51553539037704466
asg16
F2
sg17
I10
sg18
I10000
sg19
(F0.51553539037704466
F0.52441787719726562
F0.0088824868202209469
tp224
sbsS'SimpleIntFloatArithmetic'
p225
(iArithmetic
SimpleIntFloatArithmetic
p226
(dp227
g8
I110
sg9
(lp228
F0.0019107341766357421
aF0.001911628246307373
aF0.0019104361534118652
aF0.0019120335578918456
asg11
I4
sg12
g13
sg14
(lp229
F0.35318256616592408
asg16
F2
sg17
I10
sg18
I12000
sg19
(F0.35318256616592408
F0.35509300231933594
F0.0019104361534118652
tp230
sbsS'CreateUnicodeWithConcat'
p231
(iUnicode
CreateUnicodeWithConcat
p232
(dp233
g8
I50
sg9
(lp234
F0.0012732863426208497
aF0.0012827754020690919
aF0.0012726306915283204
aF0.0012734413146972656
asg11
I4
sg12
g13
sg14
(lp235
F0.44975547790527343
asg16
F2
sg17
I10
sg18
I8000
sg19
(F0.44975547790527343
F0.45102810859680176
F0.0012726306915283204
tp236
sbsS'ListSlicing'
p237
(iLists
ListSlicing
p238
(dp239
g8
I175
sg9
(lp240
F0.0003520369529724121
aF0.00035244226455688477
aF0.00035229921340942385
aF0.00035229921340942385
asg11
I4
sg12
g13
sg14
(lp241
F0.46560298204421996
asg16
F2
sg17
I10
sg18
I80
sg19
(F0.46560298204421996
F0.46595501899719238
F0.0003520369529724121
tp242
sbsS'SimpleListComprehensions'
p243
(iLists
SimpleListComprehensions
p244
(dp245
g8
I6
sg9
(lp246
F0.00032494068145751955
aF0.00032284259796142576
aF0.00032469034194946287
aF0.00032309293746948244
asg11
I4
sg12
g13
sg14
(lp247
F0.48612520694732664
asg16
F2
sg17
I10
sg18
I2000
sg19
(F0.48612520694732664
F0.48644804954528809
F0.00032284259796142576
tp248
sbsS'CompareLongs'
p249
(iNumbers
CompareLongs
p250
(dp251
g8
I150
sg9
(lp252
F0.0011148452758789062
aF0.0011130332946777343
aF0.0011117458343505859
aF0.0011124372482299804
asg11
I4
sg12
g13
sg14
(lp253
F0.3831932544708252
asg16
F2
sg17
I10
sg18
I7000
sg19
(F0.3831932544708252
F0.38430500030517578
F0.0011117458343505859
tp254
sbsS'SimpleIntegerArithmetic'
p255
(iArithmetic
SimpleIntegerArithmetic
p256
(dp257
g8
I110
sg9
(lp258
F0.0019114375114440917
aF0.001910090446472168
aF0.0019106864929199219
aF0.0019116520881652832
asg11
I4
sg12
g13
sg14
(lp259
F0.35267508029937744
asg16
F2
sg17
I10
sg18
I12000
sg19
(F0.35267508029937744
F0.35458517074584961
F0.001910090446472168
tp260
sbsS'SpecialClassAttribute'
p261
(iLookups
SpecialClassAttribute
p262
(dp263
g8
I120
sg9
(lp264
F0.0016048908233642577
aF0.0017401933670043944
aF0.0016052365303039552
aF0.0016026020050048829
asg11
I4
sg12
g13
sg14
(lp265
F0.50056438446044926
asg16
F2
sg17
I10
sg18
I10000
sg19
(F0.50056438446044926
F0.5021669864654541
F0.0016026020050048829
tp266
sbsS'SecondImport'
p267
(iImports
SecondImport
p268
(dp269
g8
I25
sg9
(lp270
F0.00063523054122924803
aF0.0006355404853820801
aF0.00063472986221313477
aF0.00063474178314208989
asg11
I4
sg12
g13
sg14
(lp271
F0.55354517698287964
asg16
F2
sg17
I10
sg18
I4000
sg19
(F0.55354517698287964
F0.55417990684509277
F0.00063472986221313477
tp272
sbsS'WithFinally'
p273
(iWith
WithFinally
p274
(dp275
g8
I20
sg9
(lp276
F0.001275944709777832
aF0.0012763977050781251
aF0.0012751460075378419
aF0.001275646686553955
asg11
I4
sg12
g13
sg14
(lp277
F0.62699476480484007
asg16
F2
sg17
I10
sg18
I8000
sg19
(F0.62699476480484007
F0.62826991081237793
F0.0012751460075378419
tp278
sbsS'TupleSlicing'
p279
(iTuples
TupleSlicing
p280
(dp281
g8
I5250
sg9
(lp282
F0.00023124217987060546
aF0.00022873878479003906
aF0.00022867918014526367
aF0.00022869110107421876
asg11
I4
sg12
g13
sg14
(lp283
F0.4514381527900696
asg16
F2
sg17
I10
sg18
I50
sg19
(F0.4514381527900696
F0.45166683197021484
F0.00022867918014526367
tp284
sbsS'SimpleFloatArithmetic'
p285
(iArithmetic
SimpleFloatArithmetic
p286
(dp287
g8
I110
sg9
(lp288
F0.001912093162536621
aF0.001920795440673828
aF0.0019094347953796387
aF0.0019124031066894531
asg11
I4
sg12
g13
sg14
(lp289
F0.6013224720954895
asg16
F2
sg17
I10
sg18
I12000
sg19
(F0.6013224720954895
F0.60323190689086914
F0.0019094347953796387
tp290
sbsS'StringPredicates'
p291
(iStrings
StringPredicates
p292
(dp293
g8
I70
sg9
(lp294
F0.0088734388351440433
aF0.0088774442672729485
aF0.0088757872581481934
aF0.0088914871215820309
asg11
I4
sg12
g13
sg14
(lp295
F0.53678157329559328
asg16
F2
sg17
I10
sg18
I10000
sg19
(F0.53678157329559328
F0.5456550121307373
F0.0088734388351440433
tp296
sbsS'BuiltinMethodLookup'
p297
(iLookups
BuiltinMethodLookup
p298
(dp299
g8
I150
sg9
(lp300
F0.0011155366897583007
aF0.001114034652709961
aF0.0011146783828735352
aF0.0011146426200866698
asg11
I4
sg12
g13
sg14
(lp301
F0.48000488281249998
asg16
F2
sg17
I10
sg18
I7000
sg19
(F0.48000488281249998
F0.48111891746520996
F0.001114034652709961
tp302
sbsS'SimpleComplexArithmetic'
p303
(iArithmetic
SimpleComplexArithmetic
p304
(dp305
g8
I110
sg9
(lp306
F0.0012723922729492188
aF0.0012714385986328125
aF0.0012734413146972656
aF0.0012726426124572755
asg11
I4
sg12
g13
sg14
(lp307
F0.5073137760162354
asg16
F2
sg17
I10
sg18
I8000
sg19
(F0.5073137760162354
F0.50858521461486816
F0.0012714385986328125
tp308
sbsS'ConcatUnicode'
p309
(iUnicode
ConcatUnicode
p310
(dp311
g8
I50
sg9
(lp312
F0.0013013958930969238
aF0.0013016939163208007
aF0.001302647590637207
aF0.0013008475303649901
asg11
I4
sg12
g13
sg14
(lp313
F0.80158611536026003
asg16
F2
sg17
I10
sg18
I6000
sg19
(F0.80158611536026003
F0.802886962890625
F0.0013008475303649901
tp314
sbsS'CompareInternedStrings'
p315
(iStrings
CompareInternedStrings
p316
(dp317
g8
I50
sg9
(lp318
F0.0048246383666992188
aF0.0048112988471984862
aF0.004811906814575195
aF0.0048108577728271486
asg11
I4
sg12
g13
sg14
(lp319
F0.50029320716857906
asg16
F2
sg17
I10
sg18
I30000
sg19
(F0.50029320716857906
F0.50510406494140625
F0.0048108577728271486
tp320
sbsS'CompareStrings'
p321
(iStrings
CompareStrings
p322
(dp323
g8
I50
sg9
(lp324
F0.0032386898994445799
aF0.0032349944114685057
aF0.0032344937324523928
aF0.0032364964485168458
asg11
I4
sg12
g13
sg14
(lp325
F0.44313968420028688
asg16
F2
sg17
I10
sg18
I20000
sg19
(F0.44313968420028688
F0.44637417793273926
F0.0032344937324523928
tp326
sbsS'SmallTuples'
p327
(iTuples
SmallTuples
p328
(dp329
g8
I60
sg9
(lp330
F0.0014346480369567872
aF0.0014327526092529296
aF0.0014321446418762208
aF0.0014319419860839844
asg11
I4
sg12
g13
sg14
(lp331
F0.47419309616088867
asg16
F2
sg17
I10
sg18
I9000
sg19
(F0.47419309616088867
F0.47562503814697266
F0.0014319419860839844
tp332
sbsS'NormalClassAttribute'
p333
(iLookups
NormalClassAttribute
p334
(dp335
g8
I120
sg9
(lp336
F0.0016017913818359374
aF0.001600635051727295
aF0.0016000986099243164
aF0.0016025424003601075
asg11
I4
sg12
g13
sg14
(lp337
F0.52576677799224858
asg16
F2
sg17
I10
sg18
I10000
sg19
(F0.52576677799224858
F0.52736687660217285
F0.0016000986099243164
tp338
sbsS'CreateInstances'
p339
(iInstances
CreateInstances
p340
(dp341
g8
I14
sg9
(lp342
F0.0013013005256652832
aF0.0012976884841918944
aF0.0012967944145202636
aF0.0012974977493286134
asg11
I4
sg12
g13
sg14
(lp343
F0.55224915742874148
asg16
F2
sg17
I10
sg18
I8000
sg19
(F0.55224915742874148
F0.55354595184326172
F0.0012967944145202636
tp344
sbsS'DictWithStringKeys'
p345
(iDict
DictWithStringKeys
p346
(dp347
g8
I60
sg9
(lp348
F0.0031885504722595215
aF0.003190946578979492
aF0.0031881451606750487
aF0.0031880021095275881
asg11
I4
sg12
g13
sg14
(lp349
F0.44897593259811402
asg16
F2
sg17
I10
sg18
I20000
sg19
(F0.44897593259811402
F0.4521639347076416
F0.0031880021095275881
tp350
sbsS'DictCreation'
p351
(iDict
DictCreation
p352
(dp353
g8
I50
sg9
(lp354
F0.0012749433517456055
aF0.001272737979888916
aF0.0012735962867736817
aF0.0012727975845336914
asg11
I4
sg12
g13
sg14
(lp355
F0.3656432032585144
asg16
F2
sg17
I10
sg18
I8000
sg19
(F0.3656432032585144
F0.36691594123840332
F0.001272737979888916
tp356
sbsS'StringSlicing'
p357
(iStrings
StringSlicing
p358
(dp359
g8
I35
sg9
(lp360
F0.0027199864387512209
aF0.0027159810066223144
aF0.0027161955833435057
aF0.0027211308479309082
asg11
I4
sg12
g13
sg14
(lp361
F0.39568599462509157
asg16
F2
sg17
I10
sg18
I16000
sg19
(F0.39568599462509157
F0.39840197563171387
F0.0027159810066223144
tp362
sbssS'name'
p363
S'3.txt'
p364
sg11
I4
sg17
I10
sS'machine_details'
p365
(dp366
S'platform'
p367
S'Linux-3.18.0-25-rpi2-armv7l-with-Ubuntu-15.04-vivid'
p368
sS'executable'
p369
S'/usr/bin/python2'
p370
sS'builddate'
p371
S'Apr  2 2015 16:04:32'
p372
sS'unicode'
p373
S'UCS4'
p374
sS'implementation'
p375
S'CPython'
p376
sS'compiler'
p377
S'GCC 4.9.2'
p378
sS'bits'
p379
S'32bit'
p380
sS'processor'
p381
S'armv7l'
p382
sS'buildno'
p383
S'default'
p384
sS'python'
p385
S'2.7.9'
p386
ssg12
g13
sg16
F2
sS'roundtimes'
p387
(lp388
F29.766736066341402
asg18
I1
sS'verbose'
p389
I0
sb.