(i__main__
Benchmark
p1
(dp2
S'tests'
p3
(dp4
S'SpecialInstanceAttribute'
p5
(iLookups
SpecialInstanceAttribute
p6
(dp7
S'operations'
p8
I120
sS'overhead_times'
p9
(lp10
F0.0016472816467285156
aF0.0016419410705566407
aF0.0016527891159057618
aF0.0016353368759155274
asS'calibration_runs'
p11
I4
sS'timer'
p12
S'time.time'
p13
sS'times'
p14
(lp15
F0.64915463924407957
asS'version'
p16
F2
sS'warp'
p17
I10
sS'rounds'
p18
I10000
sS'last_timing'
p19
(F0.64915463924407957
F0.65078997611999512
F0.0016353368759155274
tp20
sbsS'PythonFunctionCalls'
p21
(iCalls
PythonFunctionCalls
p22
(dp23
g8
I55
sg9
(lp24
F0.0010338306427001953
aF0.00098572969436645503
aF0.00099118947982788095
aF0.001007986068725586
asg11
I4
sg12
g13
sg14
(lp25
F0.50387109518051143
asg16
F2
sg17
I10
sg18
I6000
sg19
(F0.50387109518051143
F0.50485682487487793
F0.00098572969436645503
tp26
sbsS'CompareFloatsIntegers'
p27
(iNumbers
CompareFloatsIntegers
p28
(dp29
g8
I150
sg9
(lp30
F0.001275646686553955
aF0.0012465476989746093
aF0.0010733962059020995
aF0.0010713458061218262
asg11
I4
sg12
g13
sg14
(lp31
F0.55040155649185185
asg16
F2
sg17
I10
sg18
I6000
sg19
(F0.55040155649185185
F0.55147290229797363
F0.0010713458061218262
tp32
sbsS'PythonMethodCalls'
p33
(iCalls
PythonMethodCalls
p34
(dp35
g8
I75
sg9
(lp36
F0.00050734281539916988
aF0.00052344799041748047
aF0.00050919055938720699
aF0.00051494836807250974
asg11
I4
sg12
g13
sg14
(lp37
F0.57089353799819942
asg16
F2
sg17
I10
sg18
I3000
sg19
(F0.57089353799819942
F0.57140088081359863
F0.00050734281539916988
tp38
sbsS'NestedListComprehensions'
p39
(iLists
NestedListComprehensions
p40
(dp41
g8
I6
sg9
(lp42
F0.00033217668533325195
aF0.00032348632812499999
aF0.00034618377685546875
aF0.00033198595046997071
asg11
I4
sg12
g13
sg14
(lp43
F0.57265739440917973
asg16
F2
sg17
I10
sg18
I2000
sg19
(F0.57265739440917973
F0.57298088073730469
F0.00032348632812499999
tp44
sbsS'SecondSubmoduleImport'
p45
(iImports
SecondSubmoduleImport
p46
(dp47
g8
I25
sg9
(lp48
F0.00070114135742187504
aF0.00064998865127563477
aF0.00064558982849121098
aF0.00065989494323730473
asg11
I4
sg12
g13
sg14
(lp49
F0.72005038261413579
asg16
F2
sg17
I10
sg18
I4000
sg19
(F0.72005038261413579
F0.72069597244262695
F0.00064558982849121098
tp50
sbsS'DictWithIntegerKeys'
p51
(iDict
DictWithIntegerKeys
p52
(dp53
g8
I60
sg9
(lp54
F0.0035660386085510252
aF0.003630077838897705
aF0.0035913228988647462
aF0.0035788416862487793
asg11
I4
sg12
g13
sg14
(lp55
F0.52049111127853398
asg16
F2
sg17
I10
sg18
I20000
sg19
(F0.52049111127853398
F0.52405714988708496
F0.0035660386085510252
tp56
sbsS'UnicodeSlicing'
p57
(iUnicode
UnicodeSlicing
p58
(dp59
g8
I35
sg9
(lp60
F0.0024840831756591797
aF0.0024773240089416503
aF0.0024776339530944826
aF0.0024750351905822752
asg11
I4
sg12
g13
sg14
(lp61
F0.6094379305839539
asg16
F2
sg17
I10
sg18
I14000
sg19
(F0.6094379305839539
F0.61191296577453613
F0.0024750351905822752
tp62
sbsS'NestedForLoops'
p63
(iConstructs
NestedForLoops
p64
(dp65
g8
I50000
sg9
(lp66
F8.3339214324951175e-05
aF0.00010514259338378906
aF7.8237056732177729e-05
aF7.1239471435546878e-05
asg11
I4
sg12
g13
sg14
(lp67
F0.46748571395874022
asg16
F2
sg17
I10
sg18
I30
sg19
(F0.46748571395874022
F0.46755695343017578
F7.1239471435546878e-05
tp68
sbsS'UnicodePredicates'
p69
(iUnicode
UnicodePredicates
p70
(dp71
g8
I45
sg9
(lp72
F0.010836589336395263
aF0.010851943492889404
aF0.01083683967590332
aF0.010823833942413329
asg11
I4
sg12
g13
sg14
(lp73
F0.42965902090072633
asg16
F2
sg17
I10
sg18
I12000
sg19
(F0.42965902090072633
F0.44048285484313965
F0.010823833942413329
tp74
sbsS'ForLoops'
p75
(iConstructs
ForLoops
p76
(dp77
g8
I25
sg9
(lp78
F0.00022939443588256835
aF0.00022349357604980468
aF0.00022153854370117189
aF0.00023103952407836913
asg11
I4
sg12
g13
sg14
(lp79
F0.3687445640563965
asg16
F2
sg17
I10
sg18
I1000
sg19
(F0.3687445640563965
F0.36896610260009766
F0.00022153854370117189
tp80
sbsS'ConcatStrings'
p81
(iStrings
ConcatStrings
p82
(dp83
g8
I50
sg9
(lp84
F0.0021682500839233397
aF0.0021638512611389161
aF0.0021815896034240723
aF0.0021759986877441405
asg11
I4
sg12
g13
sg14
(lp85
F1.0225260615348817
asg16
F2
sg17
I10
sg18
I10000
sg19
(F1.0225260615348817
F1.0246899127960205
F0.0021638512611389161
tp86
sbsS'SecondPackageImport'
p87
(iImports
SecondPackageImport
p88
(dp89
g8
I25
sg9
(lp90
F0.00064944028854370113
aF0.00066089630126953125
aF0.00065479278564453127
aF0.00064884424209594722
asg11
I4
sg12
g13
sg14
(lp91
F0.59191836118698116
asg16
F2
sg17
I10
sg18
I4000
sg19
(F0.59191836118698116
F0.59256720542907715
F0.00064884424209594722
tp92
sbsS'CompareIntegers'
p93
(iNumbers
CompareIntegers
p94
(dp95
g8
I150
sg9
(lp96
F0.0021487951278686525
aF0.0021418929100036621
aF0.0021720409393310549
aF0.0021528482437133791
asg11
I4
sg12
g13
sg14
(lp97
F0.44782906770706177
asg16
F2
sg17
I10
sg18
I12000
sg19
(F0.44782906770706177
F0.44997096061706543
F0.0021418929100036621
tp98
sbsS'CreateStringsWithConcat'
p99
(iStrings
CreateStringsWithConcat
p100
(dp101
g8
I50
sg9
(lp102
F0.0035721421241760253
aF0.0036344528198242188
aF0.0035621881484985351
aF0.0035789966583251952
asg11
I4
sg12
g13
sg14
(lp103
F0.58470275402069094
asg16
F2
sg17
I10
sg18
I20000
sg19
(F0.58470275402069094
F0.58826494216918945
F0.0035621881484985351
tp104
sbsS'SmallLists'
p105
(iLists
SmallLists
p106
(dp107
g8
I85
sg9
(lp108
F0.0012891411781311036
aF0.0012924909591674806
aF0.0012946486473083495
aF0.0012960433959960938
asg11
I4
sg12
g13
sg14
(lp109
F0.50883291959762578
asg16
F2
sg17
I10
sg18
I8000
sg19
(F0.50883291959762578
F0.51012206077575684
F0.0012891411781311036
tp110
sbsS'CompareUnicode'
p111
(iUnicode
CompareUnicode
p112
(dp113
g8
I50
sg9
(lp114
F0.0027602553367614747
aF0.0027783989906311037
aF0.0027925968170166016
aF0.0027832508087158201
asg11
I4
sg12
g13
sg14
(lp115
F0.43670979738235471
asg16
F2
sg17
I10
sg18
I15000
sg19
(F0.43670979738235471
F0.43947005271911621
F0.0027602553367614747
tp116
sbsS'SimpleListManipulation'
p117
(iLists
SimpleListManipulation
p118
(dp119
g8
I90
sg9
(lp120
F0.0023054003715515135
aF0.0021103382110595702
aF0.0021073460578918458
aF0.0021091461181640624
asg11
I4
sg12
g13
sg14
(lp121
F0.38583163022994993
asg16
F2
sg17
I10
sg18
I13000
sg19
(F0.38583163022994993
F0.3879389762878418
F0.0021073460578918458
tp122
sbsS'DictWithFloatKeys'
p123
(iDict
DictWithFloatKeys
p124
(dp125
g8
I60
sg9
(lp126
F0.0027001976966857912
aF0.002691805362701416
aF0.0027006030082702636
aF0.0026793479919433594
asg11
I4
sg12
g13
sg14
(lp127
F0.57654976844787598
asg16
F2
sg17
I10
sg18
I15000
sg19
(F0.57654976844787598
F0.57922911643981934
F0.0026793479919433594
tp128
sbsS'CreateNewInstances'
p129
(iNewInstances
CreateNewInstances
p130
(dp131
g8
I14
sg9
(lp132
F0.0014680385589599609
aF0.0015593290328979493
aF0.0014784812927246093
aF0.0015985369682312012
asg11
I4
sg12
g13
sg14
(lp133
F0.45286407470703127
asg16
F2
sg17
I10
sg18
I6000
sg19
(F0.45286407470703127
F0.45433211326599121
F0.0014680385589599609
tp134
sbsS'TryExcept'
p135
(iExceptions
TryExcept
p136
(dp137
g8
I150
sg9
(lp138
F0.00243377685546875
aF0.0024266242980957031
aF0.0024331331253051756
aF0.0024297833442687988
asg11
I4
sg12
g13
sg14
(lp139
F0.38211536407470703
asg16
F2
sg17
I10
sg18
I15000
sg19
(F0.38211536407470703
F0.38454198837280273
F0.0024266242980957031
tp140
sbsS'ComplexPythonFunctionCalls'
p141
(iCalls
ComplexPythonFunctionCalls
p142
(dp143
g8
I20
sg9
(lp144
F0.0018381953239440918
aF0.0017919898033142089
aF0.0018248438835144043
aF0.0018266916275024414
asg11
I4
sg12
g13
sg14
(lp145
F0.56894704103469851
asg16
F2
sg17
I10
sg18
I10000
sg19
(F0.56894704103469851
F0.5707390308380127
F0.0017919898033142089
tp146
sbsS'TryRaiseExcept'
p147
(iExceptions
TryRaiseExcept
p148
(dp149
g8
I8
sg9
(lp150
F0.00129469633102417
aF0.0012945413589477539
aF0.0012961506843566894
aF0.0013011932373046876
asg11
I4
sg12
g13
sg14
(lp151
F0.43072159290313722
asg16
F2
sg17
I10
sg18
I8000
sg19
(F0.43072159290313722
F0.43201613426208496
F0.0012945413589477539
tp152
sbsS'IfThenElse'
p153
(iConstructs
IfThenElse
p154
(dp155
g8
I90
sg9
(lp156
F0.0024726986885070801
aF0.0024445414543151855
aF0.0024639010429382325
aF0.0025081872940063477
asg11
I4
sg12
g13
sg14
(lp157
F0.33200236558914187
asg16
F2
sg17
I10
sg18
I15000
sg19
(F0.33200236558914187
F0.33444690704345703
F0.0024445414543151855
tp158
sbsS'NormalInstanceAttribute'
p159
(iLookups
NormalInstanceAttribute
p160
(dp161
g8
I120
sg9
(lp162
F0.0016688942909240724
aF0.0016686916351318359
aF0.0016499400138854981
aF0.0016585469245910644
asg11
I4
sg12
g13
sg14
(lp163
F0.42344895601272581
asg16
F2
sg17
I10
sg18
I10000
sg19
(F0.42344895601272581
F0.42509889602661133
F0.0016499400138854981
tp164
sbsS'BuiltinFunctionCalls'
p165
(iCalls
BuiltinFunctionCalls
p166
(dp167
g8
I85
sg9
(lp168
F0.0011370062828063964
aF0.0012186527252197265
aF0.0011366009712219238
aF0.0011124372482299804
asg11
I4
sg12
g13
sg14
(lp169
F0.57063057422637942
asg16
F2
sg17
I10
sg18
I6000
sg19
(F0.57063057422637942
F0.57174301147460938
F0.0011124372482299804
tp170
sbsS'UnicodeMappings'
p171
(iUnicode
UnicodeMappings
p172
(dp173
g8
I36
sg9
(lp174
F0.0021788001060485838
aF0.0021521925926208498
aF0.0021536946296691895
aF0.0021638989448547362
asg11
I4
sg12
g13
sg14
(lp175
F0.32503677606582643
asg16
F2
sg17
I10
sg18
I1000
sg19
(F0.32503677606582643
F0.32718896865844727
F0.0021521925926208498
tp176
sbsS'CompareFloats'
p177
(iNumbers
CompareFloats
p178
(dp179
g8
I150
sg9
(lp180
F0.0014338016510009766
aF0.0014209985733032227
aF0.0014292001724243164
aF0.0014326453208923339
asg11
I4
sg12
g13
sg14
(lp181
F0.57770011425018308
asg16
F2
sg17
I10
sg18
I8000
sg19
(F0.57770011425018308
F0.57912111282348633
F0.0014209985733032227
tp182
sbsS'StringMappings'
p183
(iStrings
StringMappings
p184
(dp185
g8
I36
sg9
(lp186
F0.0016584992408752441
aF0.0016428947448730469
aF0.0016370415687561035
aF0.0016562938690185547
asg11
I4
sg12
g13
sg14
(lp187
F0.57765787839889526
asg16
F2
sg17
I10
sg18
I7000
sg19
(F0.57765787839889526
F0.57929491996765137
F0.0016370415687561035
tp188
sbsS'TryFinally'
p189
(iWith
TryFinally
p190
(dp191
g8
I20
sg9
(lp192
F0.0013002395629882813
aF0.0012990832328796387
aF0.0013031840324401855
aF0.0013060331344604491
asg11
I4
sg12
g13
sg14
(lp193
F0.50707775354385376
asg16
F2
sg17
I10
sg18
I8000
sg19
(F0.50707775354385376
F0.5083768367767334
F0.0012990832328796387
tp194
sbsS'Recursion'
p195
(iCalls
Recursion
p196
(dp197
g8
I5
sg9
(lp198
F0.0016363501548767091
aF0.0016372442245483399
aF0.001641690731048584
aF0.0016336441040039062
asg11
I4
sg12
g13
sg14
(lp199
F0.7325294017791748
asg16
F2
sg17
I10
sg18
I10000
sg19
(F0.7325294017791748
F0.73416304588317871
F0.0016336441040039062
tp200
sbsS'SimpleLongArithmetic'
p201
(iArithmetic
SimpleLongArithmetic
p202
(dp203
g8
I110
sg9
(lp204
F0.00096912384033203129
aF0.00097198486328125004
aF0.00096808671951293941
aF0.00097063779830932619
asg11
I4
sg12
g13
sg14
(lp205
F0.42165101766586305
asg16
F2
sg17
I10
sg18
I6000
sg19
(F0.42165101766586305
F0.42261910438537598
F0.00096808671951293941
tp206
sbsS'SimpleDictManipulation'
p207
(iDict
SimpleDictManipulation
p208
(dp209
g8
I120
sg9
(lp210
F0.0016469955444335938
aF0.00163499116897583
aF0.0016469001770019532
aF0.0016345977783203125
asg11
I4
sg12
g13
sg14
(lp211
F0.53929853439331055
asg16
F2
sg17
I10
sg18
I10000
sg19
(F0.53929853439331055
F0.54093313217163086
F0.0016345977783203125
tp212
sbsS'WithRaiseExcept'
p213
(iWith
WithRaiseExcept
p214
(dp215
g8
I8
sg9
(lp216
F0.0016267061233520507
aF0.0016173958778381349
aF0.0016293525695800781
aF0.0016304016113281249
asg11
I4
sg12
g13
sg14
(lp217
F0.88822559118270872
asg16
F2
sg17
I10
sg18
I10000
sg19
(F0.88822559118270872
F0.88984298706054688
F0.0016173958778381349
tp218
sbsS'UnicodeProperties'
p219
(iUnicode
UnicodeProperties
p220
(dp221
g8
I40
sg9
(lp222
F0.0090392470359802243
aF0.0090160965919494629
aF0.00902400016784668
aF0.009012854099273682
asg11
I4
sg12
g13
sg14
(lp223
F0.52333506345748904
asg16
F2
sg17
I10
sg18
I10000
sg19
(F0.52333506345748904
F0.5323479175567627
F0.009012854099273682
tp224
sbsS'SimpleIntFloatArithmetic'
p225
(iArithmetic
SimpleIntFloatArithmetic
p226
(dp227
g8
I110
sg9
(lp228
F0.001970541477203369
aF0.0019608378410339356
aF0.0019649505615234376
aF0.0019698500633239745
asg11
I4
sg12
g13
sg14
(lp229
F0.35389701128005979
asg16
F2
sg17
I10
sg18
I12000
sg19
(F0.35389701128005979
F0.35585784912109375
F0.0019608378410339356
tp230
sbsS'CreateUnicodeWithConcat'
p231
(iUnicode
CreateUnicodeWithConcat
p232
(dp233
g8
I50
sg9
(lp234
F0.0014482855796813965
aF0.0014445543289184569
aF0.0014389514923095702
aF0.0014274954795837403
asg11
I4
sg12
g13
sg14
(lp235
F0.46004239320755003
asg16
F2
sg17
I10
sg18
I8000
sg19
(F0.46004239320755003
F0.46146988868713379
F0.0014274954795837403
tp236
sbsS'ListSlicing'
p237
(iLists
ListSlicing
p238
(dp239
g8
I175
sg9
(lp240
F0.00035969018936157229
aF0.00037724971771240233
aF0.00035514831542968748
aF0.00035740137100219725
asg11
I4
sg12
g13
sg14
(lp241
F0.49552998542785642
asg16
F2
sg17
I10
sg18
I80
sg19
(F0.49552998542785642
F0.49588513374328613
F0.00035514831542968748
tp242
sbsS'SimpleListComprehensions'
p243
(iLists
SimpleListComprehensions
p244
(dp245
g8
I6
sg9
(lp246
F0.00034459829330444334
aF0.00032489299774169923
aF0.00032759904861450194
aF0.00035475492477416993
asg11
I4
sg12
g13
sg14
(lp247
F0.47945625782012941
asg16
F2
sg17
I10
sg18
I2000
sg19
(F0.47945625782012941
F0.47978115081787109
F0.00032489299774169923
tp248
sbsS'CompareLongs'
p249
(iNumbers
CompareLongs
p250
(dp251
g8
I150
sg9
(lp252
F0.0012855410575866699
aF0.0012485504150390625
aF0.0012481570243835448
aF0.0012520432472229003
asg11
I4
sg12
g13
sg14
(lp253
F0.38693782091140749
asg16
F2
sg17
I10
sg18
I7000
sg19
(F0.38693782091140749
F0.38818597793579102
F0.0012481570243835448
tp254
sbsS'SimpleIntegerArithmetic'
p255
(iArithmetic
SimpleIntegerArithmetic
p256
(dp257
g8
I110
sg9
(lp258
F0.0019643425941467283
aF0.0019689440727233888
aF0.0019939422607421877
aF0.0019578933715820312
asg11
I4
sg12
g13
sg14
(lp259
F0.3539431095123291
asg16
F2
sg17
I10
sg18
I12000
sg19
(F0.3539431095123291
F0.35590100288391113
F0.0019578933715820312
tp260
sbsS'SpecialClassAttribute'
p261
(iLookups
SpecialClassAttribute
p262
(dp263
g8
I120
sg9
(lp264
F0.0016389846801757812
aF0.0016472935676574707
aF0.0016330957412719726
aF0.001641690731048584
asg11
I4
sg12
g13
sg14
(lp265
F0.50267584323883052
asg16
F2
sg17
I10
sg18
I10000
sg19
(F0.50267584323883052
F0.50430893898010254
F0.0016330957412719726
tp266
sbsS'SecondImport'
p267
(iImports
SecondImport
p268
(dp269
g8
I25
sg9
(lp270
F0.00066179037094116211
aF0.00065640211105346682
aF0.00065635442733764644
aF0.00065654516220092773
asg11
I4
sg12
g13
sg14
(lp271
F0.57062960863113399
asg16
F2
sg17
I10
sg18
I4000
sg19
(F0.57062960863113399
F0.57128596305847168
F0.00065635442733764644
tp272
sbsS'WithFinally'
p273
(iWith
WithFinally
p274
(dp275
g8
I20
sg9
(lp276
F0.0012962460517883302
aF0.0013021945953369141
aF0.0012973427772521972
aF0.0012957453727722168
asg11
I4
sg12
g13
sg14
(lp277
F0.63055425882339478
asg16
F2
sg17
I10
sg18
I8000
sg19
(F0.63055425882339478
F0.63185000419616699
F0.0012957453727722168
tp278
sbsS'TupleSlicing'
p279
(iTuples
TupleSlicing
p280
(dp281
g8
I5250
sg9
(lp282
F0.00023349523544311524
aF0.00023109912872314452
aF0.00024149417877197268
aF0.00023959875106811525
asg11
I4
sg12
g13
sg14
(lp283
F0.44707171916961669
asg16
F2
sg17
I10
sg18
I50
sg19
(F0.44707171916961669
F0.44730281829833984
F0.00023109912872314452
tp284
sbsS'SimpleFloatArithmetic'
p285
(iArithmetic
SimpleFloatArithmetic
p286
(dp287
g8
I110
sg9
(lp288
F0.001965498924255371
aF0.0020026445388793947
aF0.0019646525382995606
aF0.001965796947479248
asg11
I4
sg12
g13
sg14
(lp289
F0.60252133607864378
asg16
F2
sg17
I10
sg18
I12000
sg19
(F0.60252133607864378
F0.60448598861694336
F0.0019646525382995606
tp290
sbsS'StringPredicates'
p291
(iStrings
StringPredicates
p292
(dp293
g8
I70
sg9
(lp294
F0.0090171933174133297
aF0.0090338468551635735
aF0.0090233445167541507
aF0.0090436458587646491
asg11
I4
sg12
g13
sg14
(lp295
F0.54146364927291868
asg16
F2
sg17
I10
sg18
I10000
sg19
(F0.54146364927291868
F0.55048084259033203
F0.0090171933174133297
tp296
sbsS'BuiltinMethodLookup'
p297
(iLookups
BuiltinMethodLookup
p298
(dp299
g8
I150
sg9
(lp300
F0.0012405991554260253
aF0.0012479901313781738
aF0.0012524008750915527
aF0.0012431383132934571
asg11
I4
sg12
g13
sg14
(lp301
F0.48341144323349
asg16
F2
sg17
I10
sg18
I7000
sg19
(F0.48341144323349
F0.48465204238891602
F0.0012405991554260253
tp302
sbsS'SimpleComplexArithmetic'
p303
(iArithmetic
SimpleComplexArithmetic
p304
(dp305
g8
I110
sg9
(lp306
F0.0013020277023315431
aF0.0013250231742858887
aF0.0013119816780090333
aF0.0013002395629882813
asg11
I4
sg12
g13
sg14
(lp307
F0.51730976104736326
asg16
F2
sg17
I10
sg18
I8000
sg19
(F0.51730976104736326
F0.51861000061035156
F0.0013002395629882813
tp308
sbsS'ConcatUnicode'
p309
(iUnicode
ConcatUnicode
p310
(dp311
g8
I50
sg9
(lp312
F0.0014900445938110351
aF0.0014588475227355958
aF0.0015242934226989747
aF0.0014573931694030762
asg11
I4
sg12
g13
sg14
(lp313
F0.83512550592422485
asg16
F2
sg17
I10
sg18
I6000
sg19
(F0.83512550592422485
F0.83658289909362793
F0.0014573931694030762
tp314
sbsS'CompareInternedStrings'
p315
(iStrings
CompareInternedStrings
p316
(dp317
g8
I50
sg9
(lp318
F0.0054391026496887207
aF0.0053957939147949215
aF0.0053797483444213865
aF0.0054416894912719723
asg11
I4
sg12
g13
sg14
(lp319
F0.50376527309417729
asg16
F2
sg17
I10
sg18
I30000
sg19
(F0.50376527309417729
F0.50914502143859863
F0.0053797483444213865
tp320
sbsS'CompareStrings'
p321
(iStrings
CompareStrings
p322
(dp323
g8
I50
sg9
(lp324
F0.0036470413208007811
aF0.0036544919013977049
aF0.0036790013313293458
aF0.0036911010742187501
asg11
I4
sg12
g13
sg14
(lp325
F0.44872288703918456
asg16
F2
sg17
I10
sg18
I20000
sg19
(F0.44872288703918456
F0.45236992835998535
F0.0036470413208007811
tp326
sbsS'SmallTuples'
p327
(iTuples
SmallTuples
p328
(dp329
g8
I60
sg9
(lp330
F0.0014508485794067383
aF0.0014729022979736329
aF0.0014763951301574707
aF0.0014554977416992188
asg11
I4
sg12
g13
sg14
(lp331
F0.4752411127090454
asg16
F2
sg17
I10
sg18
I9000
sg19
(F0.4752411127090454
F0.47669196128845215
F0.0014508485794067383
tp332
sbsS'NormalClassAttribute'
p333
(iLookups
NormalClassAttribute
p334
(dp335
g8
I120
sg9
(lp336
F0.0016727447509765625
aF0.0016463994979858398
aF0.0016709923744201659
aF0.0016478896141052246
asg11
I4
sg12
g13
sg14
(lp337
F0.52106058597564697
asg16
F2
sg17
I10
sg18
I10000
sg19
(F0.52106058597564697
F0.52270698547363281
F0.0016463994979858398
tp338
sbsS'CreateInstances'
p339
(iInstances
CreateInstances
p340
(dp341
g8
I14
sg9
(lp342
F0.0015089988708496093
aF0.0014698505401611328
aF0.0014612436294555663
aF0.0014860987663269042
asg11
I4
sg12
g13
sg14
(lp343
F0.5553686857223511
asg16
F2
sg17
I10
sg18
I8000
sg19
(F0.5553686857223511
F0.55682992935180664
F0.0014612436294555663
tp344
sbsS'DictWithStringKeys'
p345
(iDict
DictWithStringKeys
p346
(dp347
g8
I60
sg9
(lp348
F0.0035832881927490234
aF0.003561854362487793
aF0.0036438941955566407
aF0.0035951972007751466
asg11
I4
sg12
g13
sg14
(lp349
F0.45550835132598877
asg16
F2
sg17
I10
sg18
I20000
sg19
(F0.45550835132598877
F0.45907020568847656
F0.003561854362487793
tp350
sbsS'DictCreation'
p351
(iDict
DictCreation
p352
(dp353
g8
I50
sg9
(lp354
F0.0014467835426330566
aF0.0014710426330566406
aF0.0014599442481994628
aF0.0014348506927490234
asg11
I4
sg12
g13
sg14
(lp355
F0.37227101325988771
asg16
F2
sg17
I10
sg18
I8000
sg19
(F0.37227101325988771
F0.37370586395263672
F0.0014348506927490234
tp356
sbsS'StringSlicing'
p357
(iStrings
StringSlicing
p358
(dp359
g8
I35
sg9
(lp360
F0.0027870416641235353
aF0.0027940511703491212
aF0.0028007984161376952
aF0.0027809858322143553
asg11
I4
sg12
g13
sg14
(lp361
F0.39775888919830321
asg16
F2
sg17
I10
sg18
I16000
sg19
(F0.39775888919830321
F0.40053987503051758
F0.0027809858322143553
tp362
sbssS'name'
p363
S'39.txt'
p364
sg11
I4
sg17
I10
sS'machine_details'
p365
(dp366
S'platform'
p367
S'Linux-3.18.0-25-rpi2-armv7l-with-Ubuntu-15.04-vivid'
p368
sS'executable'
p369
S'/usr/bin/python2'
p370
sS'builddate'
p371
S'Apr  2 2015 16:04:32'
p372
sS'unicode'
p373
S'UCS4'
p374
sS'implementation'
p375
S'CPython'
p376
sS'compiler'
p377
S'GCC 4.9.2'
p378
sS'bits'
p379
S'32bit'
p380
sS'processor'
p381
S'armv7l'
p382
sS'buildno'
p383
S'default'
p384
sS'python'
p385
S'2.7.9'
p386
ssg12
g13
sg16
F2
sS'roundtimes'
p387
(lp388
F30.161255908012397
asg18
I1
sS'verbose'
p389
I0
sb.