(i__main__
Benchmark
p1
(dp2
S'tests'
p3
(dp4
S'SpecialInstanceAttribute'
p5
(iLookups
SpecialInstanceAttribute
p6
(dp7
S'operations'
p8
I120
sS'overhead_times'
p9
(lp10
F0.0023690462112426758
aF0.002361595630645752
aF0.0023651480674743651
aF0.0023723483085632325
asS'calibration_runs'
p11
I4
sS'timer'
p12
S'time.time'
p13
sS'times'
p14
(lp15
F0.80261844396591187
asS'version'
p16
F2
sS'warp'
p17
I10
sS'rounds'
p18
I10000
sS'last_timing'
p19
(F0.80261844396591187
F0.80498003959655762
F0.002361595630645752
tp20
sbsS'PythonFunctionCalls'
p21
(iCalls
PythonFunctionCalls
p22
(dp23
g8
I55
sg9
(lp24
F0.0014111042022705079
aF0.0014052391052246094
aF0.001412200927734375
aF0.0014069437980651855
asg11
I4
sg12
g13
sg14
(lp25
F0.59940266609191895
asg16
F2
sg17
I10
sg18
I6000
sg19
(F0.59940266609191895
F0.60080790519714355
F0.0014052391052246094
tp26
sbsS'CompareFloatsIntegers'
p27
(iNumbers
CompareFloatsIntegers
p28
(dp29
g8
I150
sg9
(lp30
F0.0013906002044677735
aF0.0013940453529357911
aF0.0013878941535949707
aF0.0013950467109680176
asg11
I4
sg12
g13
sg14
(lp31
F0.54777711629867554
asg16
F2
sg17
I10
sg18
I6000
sg19
(F0.54777711629867554
F0.54916501045227051
F0.0013878941535949707
tp32
sbsS'PythonMethodCalls'
p33
(iCalls
PythonMethodCalls
p34
(dp35
g8
I75
sg9
(lp36
F0.00072177648544311521
aF0.00072067975997924805
aF0.00071873664855957029
aF0.00072218179702758793
asg11
I4
sg12
g13
sg14
(lp37
F0.82048521041870115
asg16
F2
sg17
I10
sg18
I3000
sg19
(F0.82048521041870115
F0.82120394706726074
F0.00071873664855957029
tp38
sbsS'NestedListComprehensions'
p39
(iLists
NestedListComprehensions
p40
(dp41
g8
I6
sg9
(lp42
F0.00046643018722534178
aF0.00046883821487426759
aF0.00046594142913818358
aF0.00047184228897094725
asg11
I4
sg12
g13
sg14
(lp43
F0.65753309726715092
asg16
F2
sg17
I10
sg18
I2000
sg19
(F0.65753309726715092
F0.65799903869628906
F0.00046594142913818358
tp44
sbsS'SecondSubmoduleImport'
p45
(iImports
SecondSubmoduleImport
p46
(dp47
g8
I25
sg9
(lp48
F0.00093194246292114256
aF0.00092813968658447268
aF0.00092924833297729497
aF0.00092824697494506834
asg11
I4
sg12
g13
sg14
(lp49
F1.048525834083557
asg16
F2
sg17
I10
sg18
I4000
sg19
(F1.048525834083557
F1.0494539737701416
F0.00092813968658447268
tp50
sbsS'DictWithIntegerKeys'
p51
(iDict
DictWithIntegerKeys
p52
(dp53
g8
I60
sg9
(lp54
F0.0046597480773925785
aF0.0046573400497436522
aF0.0046875953674316408
aF0.0046647429466247555
asg11
I4
sg12
g13
sg14
(lp55
F0.62661259174346928
asg16
F2
sg17
I10
sg18
I20000
sg19
(F0.62661259174346928
F0.63126993179321289
F0.0046573400497436522
tp56
sbsS'UnicodeSlicing'
p57
(iUnicode
UnicodeSlicing
p58
(dp59
g8
I35
sg9
(lp60
F0.0035233378410339357
aF0.0035187005996704102
aF0.0035189509391784666
aF0.0035286426544189455
asg11
I4
sg12
g13
sg14
(lp61
F0.72205531597137451
asg16
F2
sg17
I10
sg18
I14000
sg19
(F0.72205531597137451
F0.72557401657104492
F0.0035187005996704102
tp62
sbsS'NestedForLoops'
p63
(iConstructs
NestedForLoops
p64
(dp65
g8
I50000
sg9
(lp66
F0.00010883808135986328
aF0.00011144876480102539
aF0.00010834932327270508
aF0.00010839700698852539
asg11
I4
sg12
g13
sg14
(lp67
F0.56966460943222041
asg16
F2
sg17
I10
sg18
I30
sg19
(F0.56966460943222041
F0.56977295875549316
F0.00010834932327270508
tp68
sbsS'UnicodePredicates'
p69
(iUnicode
UnicodePredicates
p70
(dp71
g8
I45
sg9
(lp72
F0.014625692367553711
aF0.01463024616241455
aF0.014628851413726806
aF0.014629697799682618
asg11
I4
sg12
g13
sg14
(lp73
F0.66617116928100584
asg16
F2
sg17
I10
sg18
I12000
sg19
(F0.66617116928100584
F0.68079686164855957
F0.014625692367553711
tp74
sbsS'ForLoops'
p75
(iConstructs
ForLoops
p76
(dp77
g8
I25
sg9
(lp78
F0.00031919479370117186
aF0.00031853914260864257
aF0.00031698942184448241
aF0.00031800270080566405
asg11
I4
sg12
g13
sg14
(lp79
F0.36135493516921996
asg16
F2
sg17
I10
sg18
I1000
sg19
(F0.36135493516921996
F0.36167192459106445
F0.00031698942184448241
tp80
sbsS'ConcatStrings'
p81
(iStrings
ConcatStrings
p82
(dp83
g8
I50
sg9
(lp84
F0.0027812361717224122
aF0.0027700901031494141
aF0.0027720808982849123
aF0.0027753829956054686
asg11
I4
sg12
g13
sg14
(lp85
F0.92332491874694822
asg16
F2
sg17
I10
sg18
I10000
sg19
(F0.92332491874694822
F0.92609500885009766
F0.0027700901031494141
tp86
sbsS'SecondPackageImport'
p87
(iImports
SecondPackageImport
p88
(dp89
g8
I25
sg9
(lp90
F0.00093024969100952148
aF0.00092843770980834963
aF0.00092995166778564453
aF0.00092954635620117192
asg11
I4
sg12
g13
sg14
(lp91
F0.8545446038246155
asg16
F2
sg17
I10
sg18
I4000
sg19
(F0.8545446038246155
F0.85547304153442383
F0.00092843770980834963
tp92
sbsS'CompareIntegers'
p93
(iNumbers
CompareIntegers
p94
(dp95
g8
I150
sg9
(lp96
F0.0028014421463012696
aF0.0027940034866333007
aF0.0028095006942749023
aF0.0028022527694702148
asg11
I4
sg12
g13
sg14
(lp97
F0.43998601436614992
asg16
F2
sg17
I10
sg18
I12000
sg19
(F0.43998601436614992
F0.4427800178527832
F0.0027940034866333007
tp98
sbsS'CreateStringsWithConcat'
p99
(iStrings
CreateStringsWithConcat
p100
(dp101
g8
I50
sg9
(lp102
F0.0047016501426696781
aF0.004669392108917236
aF0.0046676993370056152
aF0.0046781063079833988
asg11
I4
sg12
g13
sg14
(lp103
F0.55874830484390259
asg16
F2
sg17
I10
sg18
I20000
sg19
(F0.55874830484390259
F0.5634160041809082
F0.0046676993370056152
tp104
sbsS'SmallLists'
p105
(iLists
SmallLists
p106
(dp107
g8
I85
sg9
(lp108
F0.0018683433532714843
aF0.001877593994140625
aF0.0018742918968200684
aF0.0018736481666564941
asg11
I4
sg12
g13
sg14
(lp109
F0.63896050453186037
asg16
F2
sg17
I10
sg18
I8000
sg19
(F0.63896050453186037
F0.64082884788513184
F0.0018683433532714843
tp110
sbsS'CompareUnicode'
p111
(iUnicode
CompareUnicode
p112
(dp113
g8
I50
sg9
(lp114
F0.0035700917243957518
aF0.0035636067390441895
aF0.0035802960395812989
aF0.0035694956779479979
asg11
I4
sg12
g13
sg14
(lp115
F0.56385449171066282
asg16
F2
sg17
I10
sg18
I15000
sg19
(F0.56385449171066282
F0.56741809844970703
F0.0035636067390441895
tp116
sbsS'SimpleListManipulation'
p117
(iLists
SimpleListManipulation
p118
(dp119
g8
I90
sg9
(lp120
F0.0030572414398193359
aF0.0030547022819519044
aF0.0030585527420043945
aF0.0030539989471435546
asg11
I4
sg12
g13
sg14
(lp121
F0.46548810005187991
asg16
F2
sg17
I10
sg18
I13000
sg19
(F0.46548810005187991
F0.46854209899902344
F0.0030539989471435546
tp122
sbsS'DictWithFloatKeys'
p123
(iDict
DictWithFloatKeys
p124
(dp125
g8
I60
sg9
(lp126
F0.0034920811653137208
aF0.0035122871398925782
aF0.0034970760345458983
aF0.0035064339637756346
asg11
I4
sg12
g13
sg14
(lp127
F0.64513591527938841
asg16
F2
sg17
I10
sg18
I15000
sg19
(F0.64513591527938841
F0.64862799644470215
F0.0034920811653137208
tp128
sbsS'CreateNewInstances'
p129
(iNewInstances
CreateNewInstances
p130
(dp131
g8
I14
sg9
(lp132
F0.0017821550369262694
aF0.0017820477485656738
aF0.0017867445945739745
aF0.0018065452575683593
asg11
I4
sg12
g13
sg14
(lp133
F0.70237578153610225
asg16
F2
sg17
I10
sg18
I6000
sg19
(F0.70237578153610225
F0.70415782928466797
F0.0017820477485656738
tp134
sbsS'TryExcept'
p135
(iExceptions
TryExcept
p136
(dp137
g8
I150
sg9
(lp138
F0.0035121321678161623
aF0.0035296320915222169
aF0.0035326361656188967
aF0.0035271883010864259
asg11
I4
sg12
g13
sg14
(lp139
F0.43665386438369752
asg16
F2
sg17
I10
sg18
I15000
sg19
(F0.43665386438369752
F0.44016599655151367
F0.0035121321678161623
tp140
sbsS'ComplexPythonFunctionCalls'
p141
(iCalls
ComplexPythonFunctionCalls
p142
(dp143
g8
I20
sg9
(lp144
F0.0023349881172180175
aF0.0023394346237182615
aF0.0023315429687500002
aF0.0023281812667846681
asg11
I4
sg12
g13
sg14
(lp145
F0.68607685565948484
asg16
F2
sg17
I10
sg18
I10000
sg19
(F0.68607685565948484
F0.68840503692626953
F0.0023281812667846681
tp146
sbsS'TryRaiseExcept'
p147
(iExceptions
TryRaiseExcept
p148
(dp149
g8
I8
sg9
(lp150
F0.0018702387809753419
aF0.0018695950508117675
aF0.0018812417984008789
aF0.0018793463706970215
asg11
I4
sg12
g13
sg14
(lp151
F0.76277931928634646
asg16
F2
sg17
I10
sg18
I8000
sg19
(F0.76277931928634646
F0.7646489143371582
F0.0018695950508117675
tp152
sbsS'IfThenElse'
p153
(iConstructs
IfThenElse
p154
(dp155
g8
I90
sg9
(lp156
F0.0035237431526184081
aF0.0035206437110900878
aF0.003533196449279785
aF0.0035186409950256348
asg11
I4
sg12
g13
sg14
(lp157
F0.34007018804550171
asg16
F2
sg17
I10
sg18
I15000
sg19
(F0.34007018804550171
F0.34358882904052734
F0.0035186409950256348
tp158
sbsS'NormalInstanceAttribute'
p159
(iLookups
NormalInstanceAttribute
p160
(dp161
g8
I120
sg9
(lp162
F0.0023609042167663575
aF0.0023610949516296386
aF0.0023577451705932618
aF0.0023571491241455079
asg11
I4
sg12
g13
sg14
(lp163
F0.61157784461975095
asg16
F2
sg17
I10
sg18
I10000
sg19
(F0.61157784461975095
F0.61393499374389648
F0.0023571491241455079
tp164
sbsS'BuiltinFunctionCalls'
p165
(iCalls
BuiltinFunctionCalls
p166
(dp167
g8
I85
sg9
(lp168
F0.0013965368270874023
aF0.0013941884040832519
aF0.0013914942741394044
aF0.0013925909996032714
asg11
I4
sg12
g13
sg14
(lp169
F0.79235259294509885
asg16
F2
sg17
I10
sg18
I6000
sg19
(F0.79235259294509885
F0.79374408721923828
F0.0013914942741394044
tp170
sbsS'UnicodeMappings'
p171
(iUnicode
UnicodeMappings
p172
(dp173
g8
I36
sg9
(lp174
F0.0033540964126586915
aF0.0033278942108154299
aF0.0033323526382446288
aF0.0033299922943115234
asg11
I4
sg12
g13
sg14
(lp175
F0.65000219345092769
asg16
F2
sg17
I10
sg18
I1000
sg19
(F0.65000219345092769
F0.65333008766174316
F0.0033278942108154299
tp176
sbsS'CompareFloats'
p177
(iNumbers
CompareFloats
p178
(dp179
g8
I150
sg9
(lp180
F0.0018575429916381837
aF0.0018566966056823731
aF0.0018630027770996094
aF0.0018538475036621095
asg11
I4
sg12
g13
sg14
(lp181
F0.53885898590087888
asg16
F2
sg17
I10
sg18
I8000
sg19
(F0.53885898590087888
F0.54071283340454102
F0.0018538475036621095
tp182
sbsS'StringMappings'
p183
(iStrings
StringMappings
p184
(dp185
g8
I36
sg9
(lp186
F0.0023839950561523439
aF0.0023776888847351074
aF0.0023800969123840333
aF0.0023754477500915528
asg11
I4
sg12
g13
sg14
(lp187
F0.57692257165908811
asg16
F2
sg17
I10
sg18
I7000
sg19
(F0.57692257165908811
F0.57929801940917969
F0.0023754477500915528
tp188
sbsS'TryFinally'
p189
(iWith
TryFinally
p190
(dp191
g8
I20
sg9
(lp192
F0.0018823385238647462
aF0.0018788933753967284
aF0.0018749356269836426
aF0.0018827319145202637
asg11
I4
sg12
g13
sg14
(lp193
F0.6400771021842957
asg16
F2
sg17
I10
sg18
I8000
sg19
(F0.6400771021842957
F0.6419520378112793
F0.0018749356269836426
tp194
sbsS'Recursion'
p195
(iCalls
Recursion
p196
(dp197
g8
I5
sg9
(lp198
F0.0023459911346435545
aF0.0023453354835510252
aF0.0023470878601074218
aF0.0023558378219604493
asg11
I4
sg12
g13
sg14
(lp199
F0.81707476377487187
asg16
F2
sg17
I10
sg18
I10000
sg19
(F0.81707476377487187
F0.81942009925842285
F0.0023453354835510252
tp200
sbsS'SimpleLongArithmetic'
p201
(iArithmetic
SimpleLongArithmetic
p202
(dp203
g8
I110
sg9
(lp204
F0.0014011383056640625
aF0.0014057397842407227
aF0.0014023780822753906
aF0.0014000892639160155
asg11
I4
sg12
g13
sg14
(lp205
F0.53378000259399416
asg16
F2
sg17
I10
sg18
I6000
sg19
(F0.53378000259399416
F0.53518009185791016
F0.0014000892639160155
tp206
sbsS'SimpleDictManipulation'
p207
(iDict
SimpleDictManipulation
p208
(dp209
g8
I120
sg9
(lp210
F0.0023477435111999511
aF0.0023622512817382812
aF0.0023504495620727539
aF0.0023459434509277345
asg11
I4
sg12
g13
sg14
(lp211
F0.63857612609863279
asg16
F2
sg17
I10
sg18
I10000
sg19
(F0.63857612609863279
F0.64092206954956055
F0.0023459434509277345
tp212
sbsS'WithRaiseExcept'
p213
(iWith
WithRaiseExcept
p214
(dp215
g8
I8
sg9
(lp216
F0.0023430466651916506
aF0.0023512959480285643
aF0.0023486495018005373
aF0.0023609042167663575
asg11
I4
sg12
g13
sg14
(lp217
F1.557991874217987
asg16
F2
sg17
I10
sg18
I10000
sg19
(F1.557991874217987
F1.5603349208831787
F0.0023430466651916506
tp218
sbsS'UnicodeProperties'
p219
(iUnicode
UnicodeProperties
p220
(dp221
g8
I40
sg9
(lp222
F0.012187993526458741
aF0.012181687355041503
aF0.0121864914894104
aF0.012186896800994874
asg11
I4
sg12
g13
sg14
(lp223
F0.63889129161834712
asg16
F2
sg17
I10
sg18
I10000
sg19
(F0.63889129161834712
F0.65107297897338867
F0.012181687355041503
tp224
sbsS'SimpleIntFloatArithmetic'
p225
(iArithmetic
SimpleIntFloatArithmetic
p226
(dp227
g8
I110
sg9
(lp228
F0.0028192996978759766
aF0.0028180956840515138
aF0.0028113484382629394
aF0.0028126001358032226
asg11
I4
sg12
g13
sg14
(lp229
F0.43346270322799685
asg16
F2
sg17
I10
sg18
I12000
sg19
(F0.43346270322799685
F0.43627405166625977
F0.0028113484382629394
tp230
sbsS'CreateUnicodeWithConcat'
p231
(iUnicode
CreateUnicodeWithConcat
p232
(dp233
g8
I50
sg9
(lp234
F0.0018545866012573242
aF0.001855754852294922
aF0.0018582463264465332
aF0.0018519043922424316
asg11
I4
sg12
g13
sg14
(lp235
F0.50380028486251827
asg16
F2
sg17
I10
sg18
I8000
sg19
(F0.50380028486251827
F0.50565218925476074
F0.0018519043922424316
tp236
sbsS'ListSlicing'
p237
(iLists
ListSlicing
p238
(dp239
g8
I175
sg9
(lp240
F0.00038273334503173827
aF0.00038278102874755859
aF0.00038143396377563474
aF0.00038282871246337892
asg11
I4
sg12
g13
sg14
(lp241
F0.42444351911544798
asg16
F2
sg17
I10
sg18
I80
sg19
(F0.42444351911544798
F0.42482495307922363
F0.00038143396377563474
tp242
sbsS'SimpleListComprehensions'
p243
(iLists
SimpleListComprehensions
p244
(dp245
g8
I6
sg9
(lp246
F0.00047079324722290041
aF0.00046854019165039064
aF0.00046849250793457031
aF0.00046879053115844727
asg11
I4
sg12
g13
sg14
(lp247
F0.54764461517333984
asg16
F2
sg17
I10
sg18
I2000
sg19
(F0.54764461517333984
F0.54811310768127441
F0.00046849250793457031
tp248
sbsS'CompareLongs'
p249
(iNumbers
CompareLongs
p250
(dp251
g8
I150
sg9
(lp252
F0.0016221404075622559
aF0.0016241908073425294
aF0.0016248941421508789
aF0.0016206979751586914
asg11
I4
sg12
g13
sg14
(lp253
F0.50299627780914302
asg16
F2
sg17
I10
sg18
I7000
sg19
(F0.50299627780914302
F0.50461697578430176
F0.0016206979751586914
tp254
sbsS'SimpleIntegerArithmetic'
p255
(iArithmetic
SimpleIntegerArithmetic
p256
(dp257
g8
I110
sg9
(lp258
F0.0028280854225158692
aF0.002824389934539795
aF0.0028134942054748534
aF0.0028156518936157228
asg11
I4
sg12
g13
sg14
(lp259
F0.43212040662765505
asg16
F2
sg17
I10
sg18
I12000
sg19
(F0.43212040662765505
F0.43493390083312988
F0.0028134942054748534
tp260
sbsS'SpecialClassAttribute'
p261
(iLookups
SpecialClassAttribute
p262
(dp263
g8
I120
sg9
(lp264
F0.0023741483688354491
aF0.0023671388626098633
aF0.0023657917976379395
aF0.0023551940917968749
asg11
I4
sg12
g13
sg14
(lp265
F0.77075877189636233
asg16
F2
sg17
I10
sg18
I10000
sg19
(F0.77075877189636233
F0.77311396598815918
F0.0023551940917968749
tp266
sbsS'SecondImport'
p267
(iImports
SecondImport
p268
(dp269
g8
I25
sg9
(lp270
F0.00093449354171752934
aF0.00094203948974609371
aF0.00092804431915283203
aF0.00093134641647338865
asg11
I4
sg12
g13
sg14
(lp271
F0.83442580699920654
asg16
F2
sg17
I10
sg18
I4000
sg19
(F0.83442580699920654
F0.83535385131835938
F0.00092804431915283203
tp272
sbsS'WithFinally'
p273
(iWith
WithFinally
p274
(dp275
g8
I20
sg9
(lp276
F0.0018733382225036622
aF0.0018812417984008789
aF0.0018894433975219726
aF0.0018762946128845215
asg11
I4
sg12
g13
sg14
(lp277
F0.86886874437332151
asg16
F2
sg17
I10
sg18
I8000
sg19
(F0.86886874437332151
F0.8707420825958252
F0.0018733382225036622
tp278
sbsS'TupleSlicing'
p279
(iTuples
TupleSlicing
p280
(dp281
g8
I5250
sg9
(lp282
F0.00025404691696166991
aF0.00025014877319335939
aF0.00025359392166137697
aF0.00025000572204589842
asg11
I4
sg12
g13
sg14
(lp283
F0.52659091949462888
asg16
F2
sg17
I10
sg18
I50
sg19
(F0.52659091949462888
F0.5268409252166748
F0.00025000572204589842
tp284
sbsS'SimpleFloatArithmetic'
p285
(iArithmetic
SimpleFloatArithmetic
p286
(dp287
g8
I110
sg9
(lp288
F0.0028246402740478515
aF0.0028125762939453123
aF0.0028213858604431152
aF0.0028151869773864746
asg11
I4
sg12
g13
sg14
(lp289
F0.57907443046569829
asg16
F2
sg17
I10
sg18
I12000
sg19
(F0.57907443046569829
F0.58188700675964355
F0.0028125762939453123
tp290
sbsS'StringPredicates'
p291
(iStrings
StringPredicates
p292
(dp293
g8
I70
sg9
(lp294
F0.012189626693725586
aF0.012183189392089844
aF0.012187695503234864
aF0.012187445163726806
asg11
I4
sg12
g13
sg14
(lp295
F0.70553088188171387
asg16
F2
sg17
I10
sg18
I10000
sg19
(F0.70553088188171387
F0.71771407127380371
F0.012183189392089844
tp296
sbsS'BuiltinMethodLookup'
p297
(iLookups
BuiltinMethodLookup
p298
(dp299
g8
I150
sg9
(lp300
F0.0016251444816589356
aF0.0016285419464111329
aF0.0016329526901245118
aF0.0016300439834594726
asg11
I4
sg12
g13
sg14
(lp301
F0.63923588991165159
asg16
F2
sg17
I10
sg18
I7000
sg19
(F0.63923588991165159
F0.64086103439331055
F0.0016251444816589356
tp302
sbsS'SimpleComplexArithmetic'
p303
(iArithmetic
SimpleComplexArithmetic
p304
(dp305
g8
I110
sg9
(lp306
F0.0018785476684570312
aF0.0018738865852355956
aF0.0018702387809753419
aF0.0018729448318481445
asg11
I4
sg12
g13
sg14
(lp307
F0.54570356607437132
asg16
F2
sg17
I10
sg18
I8000
sg19
(F0.54570356607437132
F0.54757380485534668
F0.0018702387809753419
tp308
sbsS'ConcatUnicode'
p309
(iUnicode
ConcatUnicode
p310
(dp311
g8
I50
sg9
(lp312
F0.001860344409942627
aF0.0018621563911437988
aF0.0018580436706542968
aF0.0018601417541503906
asg11
I4
sg12
g13
sg14
(lp313
F0.8684179306030273
asg16
F2
sg17
I10
sg18
I6000
sg19
(F0.8684179306030273
F0.87027597427368164
F0.0018580436706542968
tp314
sbsS'CompareInternedStrings'
p315
(iStrings
CompareInternedStrings
p316
(dp317
g8
I50
sg9
(lp318
F0.0070536494255065921
aF0.007052099704742432
aF0.0070757985115051268
aF0.0071053981781005861
asg11
I4
sg12
g13
sg14
(lp319
F0.56078084707260134
asg16
F2
sg17
I10
sg18
I30000
sg19
(F0.56078084707260134
F0.56783294677734375
F0.007052099704742432
tp320
sbsS'CompareStrings'
p321
(iStrings
CompareStrings
p322
(dp323
g8
I50
sg9
(lp324
F0.0047514438629150391
aF0.0047401428222656247
aF0.0047288894653320316
aF0.0047365903854370119
asg11
I4
sg12
g13
sg14
(lp325
F0.49724497795104983
asg16
F2
sg17
I10
sg18
I20000
sg19
(F0.49724497795104983
F0.50197386741638184
F0.0047288894653320316
tp326
sbsS'SmallTuples'
p327
(iTuples
SmallTuples
p328
(dp329
g8
I60
sg9
(lp330
F0.0021065473556518555
aF0.0021072506904602053
aF0.0021247506141662599
aF0.0021082878112792967
asg11
I4
sg12
g13
sg14
(lp331
F0.62023341655731201
asg16
F2
sg17
I10
sg18
I9000
sg19
(F0.62023341655731201
F0.62233996391296387
F0.0021065473556518555
tp332
sbsS'NormalClassAttribute'
p333
(iLookups
NormalClassAttribute
p334
(dp335
g8
I120
sg9
(lp336
F0.0023697257041931153
aF0.0023528337478637695
aF0.0023644804954528809
aF0.0023604869842529298
asg11
I4
sg12
g13
sg14
(lp337
F0.78001511096954346
asg16
F2
sg17
I10
sg18
I10000
sg19
(F0.78001511096954346
F0.78236794471740723
F0.0023528337478637695
tp338
sbsS'CreateInstances'
p339
(iInstances
CreateInstances
p340
(dp341
g8
I14
sg9
(lp342
F0.0018991827964782715
aF0.001903533935546875
aF0.0018983840942382812
aF0.0018986344337463378
asg11
I4
sg12
g13
sg14
(lp343
F0.90028848648071291
asg16
F2
sg17
I10
sg18
I8000
sg19
(F0.90028848648071291
F0.90218687057495117
F0.0018983840942382812
tp344
sbsS'DictWithStringKeys'
p345
(iDict
DictWithStringKeys
p346
(dp347
g8
I60
sg9
(lp348
F0.0046830892562866209
aF0.004698634147644043
aF0.0046685934066772461
aF0.0046730875968933102
asg11
I4
sg12
g13
sg14
(lp349
F0.56611049175262451
asg16
F2
sg17
I10
sg18
I20000
sg19
(F0.56611049175262451
F0.57077908515930176
F0.0046685934066772461
tp350
sbsS'DictCreation'
p351
(iDict
DictCreation
p352
(dp353
g8
I50
sg9
(lp354
F0.0018576979637145996
aF0.0018605947494506835
aF0.0018546938896179198
aF0.0018561482429504395
asg11
I4
sg12
g13
sg14
(lp355
F0.47639628648757937
asg16
F2
sg17
I10
sg18
I8000
sg19
(F0.47639628648757937
F0.47825098037719727
F0.0018546938896179198
tp356
sbsS'StringSlicing'
p357
(iStrings
StringSlicing
p358
(dp359
g8
I35
sg9
(lp360
F0.0040042757987976078
aF0.0039946913719177248
aF0.0039914369583129881
aF0.0039983391761779785
asg11
I4
sg12
g13
sg14
(lp361
F0.5036906480789185
asg16
F2
sg17
I10
sg18
I16000
sg19
(F0.5036906480789185
F0.50768208503723145
F0.0039914369583129881
tp362
sbssS'name'
p363
S'18.txt'
p364
sg11
I4
sg17
I10
sS'machine_details'
p365
(dp366
S'platform'
p367
S'Linux-4.1.11-1-ARCH-armv7l-with-glibc2.4'
p368
sS'executable'
p369
S'/usr/bin/python2'
p370
sS'builddate'
p371
S'Sep 17 2015 18:40:31'
p372
sS'unicode'
p373
S'UCS4'
p374
sS'implementation'
p375
S'CPython'
p376
sS'compiler'
p377
S'GCC 5.2.0'
p378
sS'bits'
p379
S'32bit'
p380
sS'processor'
p381
S''
sS'buildno'
p382
S'default'
p383
sS'python'
p384
S'2.7.10'
p385
ssg12
g13
sg16
F2
sS'roundtimes'
p386
(lp387
F37.524140214920052
asg18
I1
sS'verbose'
p388
I0
sb.