(i__main__
Benchmark
p1
(dp2
S'tests'
p3
(dp4
S'SpecialInstanceAttribute'
p5
(iLookups
SpecialInstanceAttribute
p6
(dp7
S'operations'
p8
I120
sS'overhead_times'
p9
(lp10
F0.0017820835113525391
aF0.0017637372016906737
aF0.0017719864845275879
aF0.0017619371414184571
asS'calibration_runs'
p11
I4
sS'timer'
p12
S'time.time'
p13
sS'times'
p14
(lp15
F0.5548150300979614
asS'version'
p16
F2
sS'warp'
p17
I10
sS'rounds'
p18
I10000
sS'last_timing'
p19
(F0.5548150300979614
F0.55657696723937988
F0.0017619371414184571
tp20
sbsS'PythonFunctionCalls'
p21
(iCalls
PythonFunctionCalls
p22
(dp23
g8
I55
sg9
(lp24
F0.0010556459426879882
aF0.001048600673675537
aF0.0010495901107788086
aF0.001051044464111328
asg11
I4
sg12
g13
sg14
(lp25
F0.50797840356826784
asg16
F2
sg17
I10
sg18
I6000
sg19
(F0.50797840356826784
F0.50902700424194336
F0.001048600673675537
tp26
sbsS'CompareFloatsIntegers'
p27
(iNumbers
CompareFloatsIntegers
p28
(dp29
g8
I150
sg9
(lp30
F0.0010441422462463378
aF0.0010472416877746582
aF0.0010483980178833008
aF0.0010491967201232909
asg11
I4
sg12
g13
sg14
(lp31
F0.52646983861923213
asg16
F2
sg17
I10
sg18
I6000
sg19
(F0.52646983861923213
F0.52751398086547852
F0.0010441422462463378
tp32
sbsS'PythonMethodCalls'
p33
(iCalls
PythonMethodCalls
p34
(dp35
g8
I75
sg9
(lp36
F0.0005439877510070801
aF0.0005429387092590332
aF0.00054403543472290037
aF0.00054259300231933598
asg11
I4
sg12
g13
sg14
(lp37
F0.57087330818176274
asg16
F2
sg17
I10
sg18
I3000
sg19
(F0.57087330818176274
F0.57141590118408203
F0.00054259300231933598
tp38
sbsS'NestedListComprehensions'
p39
(iLists
NestedListComprehensions
p40
(dp41
g8
I6
sg9
(lp42
F0.00034853219985961912
aF0.00035023689270019531
aF0.00034788846969604494
aF0.00034973621368408205
asg11
I4
sg12
g13
sg14
(lp43
F0.53163429498672488
asg16
F2
sg17
I10
sg18
I2000
sg19
(F0.53163429498672488
F0.5319821834564209
F0.00034788846969604494
tp44
sbsS'SecondSubmoduleImport'
p45
(iImports
SecondSubmoduleImport
p46
(dp47
g8
I25
sg9
(lp48
F0.00069794654846191408
aF0.00069530010223388676
aF0.00069764852523803713
aF0.00069534778594970703
asg11
I4
sg12
g13
sg14
(lp49
F0.83121650218963627
asg16
F2
sg17
I10
sg18
I4000
sg19
(F0.83121650218963627
F0.83191180229187012
F0.00069530010223388676
tp50
sbsS'DictWithIntegerKeys'
p51
(iDict
DictWithIntegerKeys
p52
(dp53
g8
I60
sg9
(lp54
F0.0035561919212341309
aF0.0035570979118347166
aF0.0035541415214538573
aF0.0035565018653869627
asg11
I4
sg12
g13
sg14
(lp55
F0.47449895143508913
asg16
F2
sg17
I10
sg18
I20000
sg19
(F0.47449895143508913
F0.47805309295654297
F0.0035541415214538573
tp56
sbsS'UnicodeSlicing'
p57
(iUnicode
UnicodeSlicing
p58
(dp59
g8
I35
sg9
(lp60
F0.0026851296424865723
aF0.0026829838752746582
aF0.0026829838752746582
aF0.0026818394660949709
asg11
I4
sg12
g13
sg14
(lp61
F0.69266594648361202
asg16
F2
sg17
I10
sg18
I14000
sg19
(F0.69266594648361202
F0.69534778594970703
F0.0026818394660949709
tp62
sbsS'NestedForLoops'
p63
(iConstructs
NestedForLoops
p64
(dp65
g8
I50000
sg9
(lp66
F7.2681903839111334e-05
aF7.1787834167480474e-05
aF7.1990489959716794e-05
aF7.168054580688476e-05
asg11
I4
sg12
g13
sg14
(lp67
F0.45026143789291384
asg16
F2
sg17
I10
sg18
I30
sg19
(F0.45026143789291384
F0.4503331184387207
F7.168054580688476e-05
tp68
sbsS'UnicodePredicates'
p69
(iUnicode
UnicodePredicates
p70
(dp71
g8
I45
sg9
(lp72
F0.01038130521774292
aF0.010374701023101807
aF0.010377943515777588
aF0.010382688045501709
asg11
I4
sg12
g13
sg14
(lp73
F0.4285274386405945
asg16
F2
sg17
I10
sg18
I12000
sg19
(F0.4285274386405945
F0.43890213966369629
F0.010374701023101807
tp74
sbsS'ForLoops'
p75
(iConstructs
ForLoops
p76
(dp77
g8
I25
sg9
(lp78
F0.00022789239883422852
aF0.0002277970314025879
aF0.00022704601287841796
aF0.00023014545440673827
asg11
I4
sg12
g13
sg14
(lp79
F0.37559192180633544
asg16
F2
sg17
I10
sg18
I1000
sg19
(F0.37559192180633544
F0.37581896781921387
F0.00022704601287841796
tp80
sbsS'ConcatStrings'
p81
(iStrings
ConcatStrings
p82
(dp83
g8
I50
sg9
(lp84
F0.002135789394378662
aF0.0021346569061279296
aF0.0021273493766784668
aF0.0021335959434509279
asg11
I4
sg12
g13
sg14
(lp85
F0.93288165330886841
asg16
F2
sg17
I10
sg18
I10000
sg19
(F0.93288165330886841
F0.93500900268554688
F0.0021273493766784668
tp86
sbsS'SecondPackageImport'
p87
(iImports
SecondPackageImport
p88
(dp89
g8
I25
sg9
(lp90
F0.00069174766540527346
aF0.00069694519042968746
aF0.00069555044174194334
aF0.00069780349731445317
asg11
I4
sg12
g13
sg14
(lp91
F0.66295018196105959
asg16
F2
sg17
I10
sg18
I4000
sg19
(F0.66295018196105959
F0.66364192962646484
F0.00069174766540527346
tp92
sbsS'CompareIntegers'
p93
(iNumbers
CompareIntegers
p94
(dp95
g8
I150
sg9
(lp96
F0.0021070957183837889
aF0.0021083950996398926
aF0.00210874080657959
aF0.0021095871925354004
asg11
I4
sg12
g13
sg14
(lp97
F0.36772494316101073
asg16
F2
sg17
I10
sg18
I12000
sg19
(F0.36772494316101073
F0.36983203887939453
F0.0021070957183837889
tp98
sbsS'CreateStringsWithConcat'
p99
(iStrings
CreateStringsWithConcat
p100
(dp101
g8
I50
sg9
(lp102
F0.0035257458686828612
aF0.0035173416137695311
aF0.0035279512405395506
aF0.0035193443298339845
asg11
I4
sg12
g13
sg14
(lp103
F0.64735560417175297
asg16
F2
sg17
I10
sg18
I20000
sg19
(F0.64735560417175297
F0.65087294578552246
F0.0035173416137695311
tp104
sbsS'SmallLists'
p105
(iLists
SmallLists
p106
(dp107
g8
I85
sg9
(lp108
F0.0013946056365966796
aF0.0014013051986694336
aF0.0014031529426574707
aF0.0014012932777404785
asg11
I4
sg12
g13
sg14
(lp109
F0.52831735610961916
asg16
F2
sg17
I10
sg18
I8000
sg19
(F0.52831735610961916
F0.52971196174621582
F0.0013946056365966796
tp110
sbsS'CompareUnicode'
p111
(iUnicode
CompareUnicode
p112
(dp113
g8
I50
sg9
(lp114
F0.0027245402336120604
aF0.0027252912521362306
aF0.0027295947074890137
aF0.002730393409729004
asg11
I4
sg12
g13
sg14
(lp115
F0.40879260301589965
asg16
F2
sg17
I10
sg18
I15000
sg19
(F0.40879260301589965
F0.41151714324951172
F0.0027245402336120604
tp116
sbsS'SimpleListManipulation'
p117
(iLists
SimpleListManipulation
p118
(dp119
g8
I90
sg9
(lp120
F0.0022663831710815429
aF0.0022603869438171387
aF0.0022647857666015627
aF0.0022565841674804686
asg11
I4
sg12
g13
sg14
(lp121
F0.37469248771667479
asg16
F2
sg17
I10
sg18
I13000
sg19
(F0.37469248771667479
F0.37694907188415527
F0.0022565841674804686
tp122
sbsS'DictWithFloatKeys'
p123
(iDict
DictWithFloatKeys
p124
(dp125
g8
I60
sg9
(lp126
F0.0026690959930419922
aF0.0026598930358886718
aF0.0026663422584533693
aF0.0026656389236450195
asg11
I4
sg12
g13
sg14
(lp127
F0.52964820861816408
asg16
F2
sg17
I10
sg18
I15000
sg19
(F0.52964820861816408
F0.53230810165405273
F0.0026598930358886718
tp128
sbsS'CreateNewInstances'
p129
(iNewInstances
CreateNewInstances
p130
(dp131
g8
I14
sg9
(lp132
F0.0013484954833984375
aF0.0013460993766784668
aF0.0013458013534545898
aF0.0013593912124633789
asg11
I4
sg12
g13
sg14
(lp133
F0.45711309909820558
asg16
F2
sg17
I10
sg18
I6000
sg19
(F0.45711309909820558
F0.45845890045166016
F0.0013458013534545898
tp134
sbsS'TryExcept'
p135
(iExceptions
TryExcept
p136
(dp137
g8
I150
sg9
(lp138
F0.0026365995407104494
aF0.0026345491409301759
aF0.0026365876197814941
aF0.0026394963264465333
asg11
I4
sg12
g13
sg14
(lp139
F0.3183185815811157
asg16
F2
sg17
I10
sg18
I15000
sg19
(F0.3183185815811157
F0.3209531307220459
F0.0026345491409301759
tp140
sbsS'ComplexPythonFunctionCalls'
p141
(iCalls
ComplexPythonFunctionCalls
p142
(dp143
g8
I20
sg9
(lp144
F0.0017435073852539063
aF0.0017398476600646972
aF0.0017456054687500001
aF0.0017473936080932618
asg11
I4
sg12
g13
sg14
(lp145
F0.5513821959495544
asg16
F2
sg17
I10
sg18
I10000
sg19
(F0.5513821959495544
F0.55312204360961914
F0.0017398476600646972
tp146
sbsS'TryRaiseExcept'
p147
(iExceptions
TryRaiseExcept
p148
(dp149
g8
I8
sg9
(lp150
F0.0013957738876342774
aF0.0014016866683959962
aF0.0014029264450073243
aF0.0014004230499267579
asg11
I4
sg12
g13
sg14
(lp151
F0.45906822681427001
asg16
F2
sg17
I10
sg18
I8000
sg19
(F0.45906822681427001
F0.4604640007019043
F0.0013957738876342774
tp152
sbsS'IfThenElse'
p153
(iConstructs
IfThenElse
p154
(dp155
g8
I90
sg9
(lp156
F0.0026365518569946289
aF0.0026384472846984865
aF0.0026352047920227052
aF0.0026348471641540528
asg11
I4
sg12
g13
sg14
(lp157
F0.28474203348159788
asg16
F2
sg17
I10
sg18
I15000
sg19
(F0.28474203348159788
F0.28737688064575195
F0.0026348471641540528
tp158
sbsS'NormalInstanceAttribute'
p159
(iLookups
NormalInstanceAttribute
p160
(dp161
g8
I120
sg9
(lp162
F0.0017751932144165039
aF0.0017701506614685059
aF0.0017755031585693359
aF0.0017616987228393556
asg11
I4
sg12
g13
sg14
(lp163
F0.40675423145294187
asg16
F2
sg17
I10
sg18
I10000
sg19
(F0.40675423145294187
F0.40851593017578125
F0.0017616987228393556
tp164
sbsS'BuiltinFunctionCalls'
p165
(iCalls
BuiltinFunctionCalls
p166
(dp167
g8
I85
sg9
(lp168
F0.0010450482368469238
aF0.0010366439819335938
aF0.0010407447814941406
aF0.0010454416275024413
asg11
I4
sg12
g13
sg14
(lp169
F0.59799432754516602
asg16
F2
sg17
I10
sg18
I6000
sg19
(F0.59799432754516602
F0.59903097152709961
F0.0010366439819335938
tp170
sbsS'UnicodeMappings'
p171
(iUnicode
UnicodeMappings
p172
(dp173
g8
I36
sg9
(lp174
F0.0023044466972351072
aF0.0022922515869140624
aF0.0022815942764282228
aF0.0022780537605285645
asg11
I4
sg12
g13
sg14
(lp175
F0.30419806241989134
asg16
F2
sg17
I10
sg18
I1000
sg19
(F0.30419806241989134
F0.30647611618041992
F0.0022780537605285645
tp176
sbsS'CompareFloats'
p177
(iNumbers
CompareFloats
p178
(dp179
g8
I150
sg9
(lp180
F0.0014018535614013672
aF0.0014070034027099609
aF0.0014014959335327149
aF0.001402902603149414
asg11
I4
sg12
g13
sg14
(lp181
F0.55823247432708745
asg16
F2
sg17
I10
sg18
I8000
sg19
(F0.55823247432708745
F0.55963397026062012
F0.0014014959335327149
tp182
sbsS'StringMappings'
p183
(iStrings
StringMappings
p184
(dp185
g8
I36
sg9
(lp186
F0.0017859458923339844
aF0.0017805933952331544
aF0.0017888903617858886
aF0.0017786502838134765
asg11
I4
sg12
g13
sg14
(lp187
F0.70605034828186031
asg16
F2
sg17
I10
sg18
I7000
sg19
(F0.70605034828186031
F0.70782899856567383
F0.0017786502838134765
tp188
sbsS'TryFinally'
p189
(iWith
TryFinally
p190
(dp191
g8
I20
sg9
(lp192
F0.0014035940170288087
aF0.0014040946960449218
aF0.0014022469520568847
aF0.001401996612548828
asg11
I4
sg12
g13
sg14
(lp193
F0.48581590652465823
asg16
F2
sg17
I10
sg18
I8000
sg19
(F0.48581590652465823
F0.48721790313720703
F0.001401996612548828
tp194
sbsS'Recursion'
p195
(iCalls
Recursion
p196
(dp197
g8
I5
sg9
(lp198
F0.0017325997352600098
aF0.0017336487770080566
aF0.0017367005348205566
aF0.0017342925071716308
asg11
I4
sg12
g13
sg14
(lp199
F0.71920250654220585
asg16
F2
sg17
I10
sg18
I10000
sg19
(F0.71920250654220585
F0.72093510627746582
F0.0017325997352600098
tp200
sbsS'SimpleLongArithmetic'
p201
(iArithmetic
SimpleLongArithmetic
p202
(dp203
g8
I110
sg9
(lp204
F0.0010498523712158202
aF0.0010486364364624024
aF0.0010511994361877442
aF0.0010476827621459961
asg11
I4
sg12
g13
sg14
(lp205
F0.4469062566757202
asg16
F2
sg17
I10
sg18
I6000
sg19
(F0.4469062566757202
F0.44795393943786621
F0.0010476827621459961
tp206
sbsS'SimpleDictManipulation'
p207
(iDict
SimpleDictManipulation
p208
(dp209
g8
I120
sg9
(lp210
F0.0017785429954528809
aF0.0017755508422851562
aF0.0017740488052368163
aF0.001777207851409912
asg11
I4
sg12
g13
sg14
(lp211
F0.51473691463470461
asg16
F2
sg17
I10
sg18
I10000
sg19
(F0.51473691463470461
F0.51651096343994141
F0.0017740488052368163
tp212
sbsS'WithRaiseExcept'
p213
(iWith
WithRaiseExcept
p214
(dp215
g8
I8
sg9
(lp216
F0.0017808794975280762
aF0.0017710804939270019
aF0.0017831802368164062
aF0.0017723798751831054
asg11
I4
sg12
g13
sg14
(lp217
F0.97906793355941768
asg16
F2
sg17
I10
sg18
I10000
sg19
(F0.97906793355941768
F0.98083901405334473
F0.0017710804939270019
tp218
sbsS'UnicodeProperties'
p219
(iUnicode
UnicodeProperties
p220
(dp221
g8
I40
sg9
(lp222
F0.0086558938026428216
aF0.0086449027061462399
aF0.0086468935012817376
aF0.0086474895477294915
asg11
I4
sg12
g13
sg14
(lp223
F0.54411307573318479
asg16
F2
sg17
I10
sg18
I10000
sg19
(F0.54411307573318479
F0.55275797843933105
F0.0086449027061462399
tp224
sbsS'SimpleIntFloatArithmetic'
p225
(iArithmetic
SimpleIntFloatArithmetic
p226
(dp227
g8
I110
sg9
(lp228
F0.0021076440811157227
aF0.0021054387092590333
aF0.0021071910858154299
aF0.0021048903465270994
asg11
I4
sg12
g13
sg14
(lp229
F0.32702122926712035
asg16
F2
sg17
I10
sg18
I12000
sg19
(F0.32702122926712035
F0.32912611961364746
F0.0021048903465270994
tp230
sbsS'CreateUnicodeWithConcat'
p231
(iUnicode
CreateUnicodeWithConcat
p232
(dp233
g8
I50
sg9
(lp234
F0.0013991951942443847
aF0.0013972997665405273
aF0.0014024972915649414
aF0.0014022469520568847
asg11
I4
sg12
g13
sg14
(lp235
F0.50191171169281001
asg16
F2
sg17
I10
sg18
I8000
sg19
(F0.50191171169281001
F0.50330901145935059
F0.0013972997665405273
tp236
sbsS'ListSlicing'
p237
(iLists
ListSlicing
p238
(dp239
g8
I175
sg9
(lp240
F0.00034735202789306643
aF0.00034805536270141599
aF0.00034989118576049804
aF0.00034824609756469729
asg11
I4
sg12
g13
sg14
(lp241
F0.47069170475006106
asg16
F2
sg17
I10
sg18
I80
sg19
(F0.47069170475006106
F0.4710390567779541
F0.00034735202789306643
tp242
sbsS'SimpleListComprehensions'
p243
(iLists
SimpleListComprehensions
p244
(dp245
g8
I6
sg9
(lp246
F0.00035924911499023436
aF0.00035524368286132812
aF0.00035475492477416993
aF0.00035814046859741213
asg11
I4
sg12
g13
sg14
(lp247
F0.46002532243728639
asg16
F2
sg17
I10
sg18
I2000
sg19
(F0.46002532243728639
F0.46038007736206055
F0.00035475492477416993
tp248
sbsS'CompareLongs'
p249
(iNumbers
CompareLongs
p250
(dp251
g8
I150
sg9
(lp252
F0.0012239933013916016
aF0.0012251973152160645
aF0.0012241482734680175
aF0.0012262463569641113
asg11
I4
sg12
g13
sg14
(lp253
F0.34354286193847655
asg16
F2
sg17
I10
sg18
I7000
sg19
(F0.34354286193847655
F0.34476685523986816
F0.0012239933013916016
tp254
sbsS'SimpleIntegerArithmetic'
p255
(iArithmetic
SimpleIntegerArithmetic
p256
(dp257
g8
I110
sg9
(lp258
F0.0021084904670715331
aF0.0021078824996948243
aF0.0021080374717712402
aF0.0021085381507873536
asg11
I4
sg12
g13
sg14
(lp259
F0.32534000873565672
asg16
F2
sg17
I10
sg18
I12000
sg19
(F0.32534000873565672
F0.32744789123535156
F0.0021078824996948243
tp260
sbsS'SpecialClassAttribute'
p261
(iLookups
SpecialClassAttribute
p262
(dp263
g8
I120
sg9
(lp264
F0.0017661929130554199
aF0.0017618536949157715
aF0.0017601490020751954
aF0.0017624378204345703
asg11
I4
sg12
g13
sg14
(lp265
F0.52352986335754392
asg16
F2
sg17
I10
sg18
I10000
sg19
(F0.52352986335754392
F0.52529001235961914
F0.0017601490020751954
tp266
sbsS'SecondImport'
p267
(iImports
SecondImport
p268
(dp269
g8
I25
sg9
(lp270
F0.00069659948348999023
aF0.00069519281387329099
aF0.00069684982299804692
aF0.00069735050201416018
asg11
I4
sg12
g13
sg14
(lp271
F0.64034179449081419
asg16
F2
sg17
I10
sg18
I4000
sg19
(F0.64034179449081419
F0.6410369873046875
F0.00069519281387329099
tp272
sbsS'WithFinally'
p273
(iWith
WithFinally
p274
(dp275
g8
I20
sg9
(lp276
F0.0014000415802001953
aF0.0013994932174682616
aF0.0013884902000427246
aF0.0013922572135925293
asg11
I4
sg12
g13
sg14
(lp277
F0.6360514760017395
asg16
F2
sg17
I10
sg18
I8000
sg19
(F0.6360514760017395
F0.63743996620178223
F0.0013884902000427246
tp278
sbsS'TupleSlicing'
p279
(iTuples
TupleSlicing
p280
(dp281
g8
I5250
sg9
(lp282
F0.00022499561309814454
aF0.0002249002456665039
aF0.00022350549697875978
aF0.0002248406410217285
asg11
I4
sg12
g13
sg14
(lp283
F0.43987358808517457
asg16
F2
sg17
I10
sg18
I50
sg19
(F0.43987358808517457
F0.44009709358215332
F0.00022350549697875978
tp284
sbsS'SimpleFloatArithmetic'
p285
(iArithmetic
SimpleFloatArithmetic
p286
(dp287
g8
I110
sg9
(lp288
F0.002099943161010742
aF0.0021034479141235352
aF0.002106940746307373
aF0.0021046876907348635
asg11
I4
sg12
g13
sg14
(lp289
F0.57848815917968754
asg16
F2
sg17
I10
sg18
I12000
sg19
(F0.57848815917968754
F0.58058810234069824
F0.002099943161010742
tp290
sbsS'StringPredicates'
p291
(iStrings
StringPredicates
p292
(dp293
g8
I70
sg9
(lp294
F0.0085929989814758304
aF0.0085877060890197747
aF0.0085874438285827633
aF0.0085890889167785645
asg11
I4
sg12
g13
sg14
(lp295
F0.56542459726333616
asg16
F2
sg17
I10
sg18
I10000
sg19
(F0.56542459726333616
F0.57401204109191895
F0.0085874438285827633
tp296
sbsS'BuiltinMethodLookup'
p297
(iLookups
BuiltinMethodLookup
p298
(dp299
g8
I150
sg9
(lp300
F0.0012392401695251465
aF0.0012381434440612792
aF0.0012372374534606934
aF0.0012378454208374023
asg11
I4
sg12
g13
sg14
(lp301
F0.50857082605361936
asg16
F2
sg17
I10
sg18
I7000
sg19
(F0.50857082605361936
F0.50980806350708008
F0.0012372374534606934
tp302
sbsS'SimpleComplexArithmetic'
p303
(iArithmetic
SimpleComplexArithmetic
p304
(dp305
g8
I110
sg9
(lp306
F0.0014001011848449707
aF0.0014042854309082031
aF0.0013988375663757323
aF0.0013967990875244141
asg11
I4
sg12
g13
sg14
(lp307
F0.51565918922424314
asg16
F2
sg17
I10
sg18
I8000
sg19
(F0.51565918922424314
F0.51705598831176758
F0.0013967990875244141
tp308
sbsS'ConcatUnicode'
p309
(iUnicode
ConcatUnicode
p310
(dp311
g8
I50
sg9
(lp312
F0.0014420866966247559
aF0.0014390945434570312
aF0.0014417886734008789
aF0.0014403820037841796
asg11
I4
sg12
g13
sg14
(lp313
F0.74039888381958008
asg16
F2
sg17
I10
sg18
I6000
sg19
(F0.74039888381958008
F0.74183797836303711
F0.0014390945434570312
tp314
sbsS'CompareInternedStrings'
p315
(iStrings
CompareInternedStrings
p316
(dp317
g8
I50
sg9
(lp318
F0.0053822875022888185
aF0.0053738832473754885
aF0.0053771853446960447
aF0.0053756833076477051
asg11
I4
sg12
g13
sg14
(lp319
F0.44371302127838136
asg16
F2
sg17
I10
sg18
I30000
sg19
(F0.44371302127838136
F0.44908690452575684
F0.0053738832473754885
tp320
sbsS'CompareStrings'
p321
(iStrings
CompareStrings
p322
(dp323
g8
I50
sg9
(lp324
F0.0036149382591247558
aF0.0036077022552490233
aF0.0036110997200012205
aF0.0036078929901123048
asg11
I4
sg12
g13
sg14
(lp325
F0.4540243625640869
asg16
F2
sg17
I10
sg18
I20000
sg19
(F0.4540243625640869
F0.45763206481933594
F0.0036077022552490233
tp326
sbsS'SmallTuples'
p327
(iTuples
SmallTuples
p328
(dp329
g8
I60
sg9
(lp330
F0.0015745043754577636
aF0.001574099063873291
aF0.0015787482261657715
aF0.0015787005424499512
asg11
I4
sg12
g13
sg14
(lp331
F0.48906296491622925
asg16
F2
sg17
I10
sg18
I9000
sg19
(F0.48906296491622925
F0.49063706398010254
F0.001574099063873291
tp332
sbsS'NormalClassAttribute'
p333
(iLookups
NormalClassAttribute
p334
(dp335
g8
I120
sg9
(lp336
F0.0017679452896118164
aF0.0017631411552429198
aF0.0017662882804870606
aF0.0017552375793457031
asg11
I4
sg12
g13
sg14
(lp337
F0.5167686939239502
asg16
F2
sg17
I10
sg18
I10000
sg19
(F0.5167686939239502
F0.5185239315032959
F0.0017552375793457031
tp338
sbsS'CreateInstances'
p339
(iInstances
CreateInstances
p340
(dp341
g8
I14
sg9
(lp342
F0.0014257431030273438
aF0.0014200925827026368
aF0.001423346996307373
aF0.0014188528060913087
asg11
I4
sg12
g13
sg14
(lp343
F0.57711718082427976
asg16
F2
sg17
I10
sg18
I8000
sg19
(F0.57711718082427976
F0.57853603363037109
F0.0014188528060913087
tp344
sbsS'DictWithStringKeys'
p345
(iDict
DictWithStringKeys
p346
(dp347
g8
I60
sg9
(lp348
F0.0035575389862060546
aF0.0035547852516174317
aF0.0035566449165344237
aF0.003558039665222168
asg11
I4
sg12
g13
sg14
(lp349
F0.42662028074264524
asg16
F2
sg17
I10
sg18
I20000
sg19
(F0.42662028074264524
F0.4301750659942627
F0.0035547852516174317
tp350
sbsS'DictCreation'
p351
(iDict
DictCreation
p352
(dp353
g8
I50
sg9
(lp354
F0.0014007449150085448
aF0.0014027833938598632
aF0.0014013290405273438
aF0.0013998866081237793
asg11
I4
sg12
g13
sg14
(lp355
F0.35659109354019164
asg16
F2
sg17
I10
sg18
I8000
sg19
(F0.35659109354019164
F0.35799098014831543
F0.0013998866081237793
tp356
sbsS'StringSlicing'
p357
(iStrings
StringSlicing
p358
(dp359
g8
I35
sg9
(lp360
F0.0030668973922729492
aF0.003012096881866455
aF0.0029755473136901856
aF0.0030102014541625978
asg11
I4
sg12
g13
sg14
(lp361
F0.39591947793960569
asg16
F2
sg17
I10
sg18
I16000
sg19
(F0.39591947793960569
F0.3988950252532959
F0.0029755473136901856
tp362
sbssS'name'
p363
S'195.txt'
p364
sg11
I4
sg17
I10
sS'machine_details'
p365
(dp366
S'platform'
p367
S'Linux-4.1.7-v7+-armv7l-with-debian-8.0'
p368
sS'executable'
p369
S'/usr/bin/python2'
p370
sS'builddate'
p371
S'Mar  8 2015 00:52:26'
p372
sS'unicode'
p373
S'UCS4'
p374
sS'implementation'
p375
S'CPython'
p376
sS'compiler'
p377
S'GCC 4.9.2'
p378
sS'bits'
p379
S'32bit'
p380
sS'processor'
p381
S''
sS'buildno'
p382
S'default'
p383
sS'python'
p384
S'2.7.9'
p385
ssg12
g13
sg16
F2
sS'roundtimes'
p386
(lp387
F29.967280578613291
asg18
I1
sS'verbose'
p388
I0
sb.