(i__main__
Benchmark
p1
(dp2
S'tests'
p3
(dp4
S'SpecialInstanceAttribute'
p5
(iLookups
SpecialInstanceAttribute
p6
(dp7
S'operations'
p8
I120
sS'overhead_times'
p9
(lp10
F0.001800537109375
aF0.0018019795417785645
aF0.0017976880073547364
aF0.0018054366111755372
asS'calibration_runs'
p11
I4
sS'timer'
p12
S'time.time'
p13
sS'times'
p14
(lp15
F0.55627726316452031
asS'version'
p16
F2
sS'warp'
p17
I10
sS'rounds'
p18
I10000
sS'last_timing'
p19
(F0.55627726316452031
F0.558074951171875
F0.0017976880073547364
tp20
sbsS'PythonFunctionCalls'
p21
(iCalls
PythonFunctionCalls
p22
(dp23
g8
I55
sg9
(lp24
F0.0010638833045959473
aF0.001069188117980957
aF0.0010626912117004395
aF0.0010624408721923828
asg11
I4
sg12
g13
sg14
(lp25
F0.50462145805358882
asg16
F2
sg17
I10
sg18
I6000
sg19
(F0.50462145805358882
F0.50568389892578125
F0.0010624408721923828
tp26
sbsS'CompareFloatsIntegers'
p27
(iNumbers
CompareFloatsIntegers
p28
(dp29
g8
I150
sg9
(lp30
F0.0010508418083190918
aF0.001044929027557373
aF0.0010549783706665038
aF0.0010490298271179199
asg11
I4
sg12
g13
sg14
(lp31
F0.52562719583511353
asg16
F2
sg17
I10
sg18
I6000
sg19
(F0.52562719583511353
F0.5266721248626709
F0.001044929027557373
tp32
sbsS'PythonMethodCalls'
p33
(iCalls
PythonMethodCalls
p34
(dp35
g8
I75
sg9
(lp36
F0.00054924488067626949
aF0.00054454803466796875
aF0.00054919719696044922
aF0.00054980516433715825
asg11
I4
sg12
g13
sg14
(lp37
F0.57525444030761719
asg16
F2
sg17
I10
sg18
I3000
sg19
(F0.57525444030761719
F0.57579898834228516
F0.00054454803466796875
tp38
sbsS'NestedListComprehensions'
p39
(iLists
NestedListComprehensions
p40
(dp41
g8
I6
sg9
(lp42
F0.00035587549209594729
aF0.00035343170166015627
aF0.00035324096679687498
aF0.00035393238067626953
asg11
I4
sg12
g13
sg14
(lp43
F0.53390154838562009
asg16
F2
sg17
I10
sg18
I2000
sg19
(F0.53390154838562009
F0.53425478935241699
F0.00035324096679687498
tp44
sbsS'SecondSubmoduleImport'
p45
(iImports
SecondSubmoduleImport
p46
(dp47
g8
I25
sg9
(lp48
F0.00069350004196166992
aF0.00069628953933715816
aF0.00069619417190551762
aF0.00069760084152221675
asg11
I4
sg12
g13
sg14
(lp49
F0.84070855379104614
asg16
F2
sg17
I10
sg18
I4000
sg19
(F0.84070855379104614
F0.84140205383300781
F0.00069350004196166992
tp50
sbsS'DictWithIntegerKeys'
p51
(iDict
DictWithIntegerKeys
p52
(dp53
g8
I60
sg9
(lp54
F0.0035924911499023438
aF0.0035683393478393556
aF0.0035805940628051759
aF0.0035973548889160155
asg11
I4
sg12
g13
sg14
(lp55
F0.47514970302581788
asg16
F2
sg17
I10
sg18
I20000
sg19
(F0.47514970302581788
F0.47871804237365723
F0.0035683393478393556
tp56
sbsS'UnicodeSlicing'
p57
(iUnicode
UnicodeSlicing
p58
(dp59
g8
I35
sg9
(lp60
F0.0026807904243469237
aF0.0027092337608337403
aF0.0027380466461181642
aF0.0026942014694213865
asg11
I4
sg12
g13
sg14
(lp61
F0.69254730939865117
asg16
F2
sg17
I10
sg18
I14000
sg19
(F0.69254730939865117
F0.69522809982299805
F0.0026807904243469237
tp62
sbsS'NestedForLoops'
p63
(iConstructs
NestedForLoops
p64
(dp65
g8
I50000
sg9
(lp66
F7.0977210998535154e-05
aF7.0929527282714844e-05
aF7.1239471435546878e-05
aF7.0786476135253901e-05
asg11
I4
sg12
g13
sg14
(lp67
F0.4516711473464966
asg16
F2
sg17
I10
sg18
I30
sg19
(F0.4516711473464966
F0.45174193382263184
F7.0786476135253901e-05
tp68
sbsS'UnicodePredicates'
p69
(iUnicode
UnicodePredicates
p70
(dp71
g8
I45
sg9
(lp72
F0.010645198822021484
aF0.010633742809295655
aF0.010641241073608398
aF0.010649096965789796
asg11
I4
sg12
g13
sg14
(lp73
F0.43037840127944949
asg16
F2
sg17
I10
sg18
I12000
sg19
(F0.43037840127944949
F0.44101214408874512
F0.010633742809295655
tp74
sbsS'ForLoops'
p75
(iConstructs
ForLoops
p76
(dp77
g8
I25
sg9
(lp78
F0.00022929906845092773
aF0.00022684335708618165
aF0.00022864341735839844
aF0.00023084878921508789
asg11
I4
sg12
g13
sg14
(lp79
F0.37651909589767457
asg16
F2
sg17
I10
sg18
I1000
sg19
(F0.37651909589767457
F0.37674593925476074
F0.00022684335708618165
tp80
sbsS'ConcatStrings'
p81
(iStrings
ConcatStrings
p82
(dp83
g8
I50
sg9
(lp84
F0.0021598935127258301
aF0.002153301239013672
aF0.0021519422531127929
aF0.0021518945693969728
asg11
I4
sg12
g13
sg14
(lp85
F0.87219793796539302
asg16
F2
sg17
I10
sg18
I10000
sg19
(F0.87219793796539302
F0.87434983253479004
F0.0021518945693969728
tp86
sbsS'SecondPackageImport'
p87
(iImports
SecondPackageImport
p88
(dp89
g8
I25
sg9
(lp90
F0.00069758892059326174
aF0.00069568157196044924
aF0.00069212913513183594
aF0.00070478916168212888
asg11
I4
sg12
g13
sg14
(lp91
F0.66928482055664062
asg16
F2
sg17
I10
sg18
I4000
sg19
(F0.66928482055664062
F0.66997694969177246
F0.00069212913513183594
tp92
sbsS'CompareIntegers'
p93
(iNumbers
CompareIntegers
p94
(dp95
g8
I150
sg9
(lp96
F0.0021167874336242678
aF0.0021172404289245606
aF0.0021115422248840334
aF0.0021162390708923339
asg11
I4
sg12
g13
sg14
(lp97
F0.36892927885055543
asg16
F2
sg17
I10
sg18
I12000
sg19
(F0.36892927885055543
F0.37104082107543945
F0.0021115422248840334
tp98
sbsS'CreateStringsWithConcat'
p99
(iStrings
CreateStringsWithConcat
p100
(dp101
g8
I50
sg9
(lp102
F0.0035680294036865234
aF0.0035756826400756836
aF0.0035684347152709962
aF0.0035631895065307618
asg11
I4
sg12
g13
sg14
(lp103
F0.65138194561004636
asg16
F2
sg17
I10
sg18
I20000
sg19
(F0.65138194561004636
F0.65494513511657715
F0.0035631895065307618
tp104
sbsS'SmallLists'
p105
(iLists
SmallLists
p106
(dp107
g8
I85
sg9
(lp108
F0.0014060974121093751
aF0.0013971447944641114
aF0.0014048933982849122
aF0.0014096498489379883
asg11
I4
sg12
g13
sg14
(lp109
F0.52705787420272832
asg16
F2
sg17
I10
sg18
I8000
sg19
(F0.52705787420272832
F0.52845501899719238
F0.0013971447944641114
tp110
sbsS'CompareUnicode'
p111
(iUnicode
CompareUnicode
p112
(dp113
g8
I50
sg9
(lp114
F0.002747952938079834
aF0.0027541995048522951
aF0.0027642965316772459
aF0.0027366876602172852
asg11
I4
sg12
g13
sg14
(lp115
F0.41012632846832275
asg16
F2
sg17
I10
sg18
I15000
sg19
(F0.41012632846832275
F0.41286301612854004
F0.0027366876602172852
tp116
sbsS'SimpleListManipulation'
p117
(iLists
SimpleListManipulation
p118
(dp119
g8
I90
sg9
(lp120
F0.002291750907897949
aF0.0022946476936340334
aF0.0023001909255981447
aF0.0023151993751525878
asg11
I4
sg12
g13
sg14
(lp121
F0.37620513439178466
asg16
F2
sg17
I10
sg18
I13000
sg19
(F0.37620513439178466
F0.37849688529968262
F0.002291750907897949
tp122
sbsS'DictWithFloatKeys'
p123
(iDict
DictWithFloatKeys
p124
(dp125
g8
I60
sg9
(lp126
F0.0026426434516906737
aF0.0026708006858825683
aF0.0026708006858825683
aF0.0026660919189453124
asg11
I4
sg12
g13
sg14
(lp127
F0.53446029424667363
asg16
F2
sg17
I10
sg18
I15000
sg19
(F0.53446029424667363
F0.53710293769836426
F0.0026426434516906737
tp128
sbsS'CreateNewInstances'
p129
(iNewInstances
CreateNewInstances
p130
(dp131
g8
I14
sg9
(lp132
F0.0013613939285278321
aF0.0013574481010437012
aF0.0013608455657958985
aF0.0013701438903808594
asg11
I4
sg12
g13
sg14
(lp133
F0.46753441095352172
asg16
F2
sg17
I10
sg18
I6000
sg19
(F0.46753441095352172
F0.46889185905456543
F0.0013574481010437012
tp134
sbsS'TryExcept'
p135
(iExceptions
TryExcept
p136
(dp137
g8
I150
sg9
(lp138
F0.0026506900787353514
aF0.0026583433151245116
aF0.0026413440704345704
aF0.0026573419570922853
asg11
I4
sg12
g13
sg14
(lp139
F0.3191965579986572
asg16
F2
sg17
I10
sg18
I15000
sg19
(F0.3191965579986572
F0.3218379020690918
F0.0026413440704345704
tp140
sbsS'ComplexPythonFunctionCalls'
p141
(iCalls
ComplexPythonFunctionCalls
p142
(dp143
g8
I20
sg9
(lp144
F0.0017637968063354491
aF0.0017516493797302246
aF0.0017805933952331544
aF0.0017497420310974121
asg11
I4
sg12
g13
sg14
(lp145
F0.5497272133827209
asg16
F2
sg17
I10
sg18
I10000
sg19
(F0.5497272133827209
F0.55147695541381836
F0.0017497420310974121
tp146
sbsS'TryRaiseExcept'
p147
(iExceptions
TryRaiseExcept
p148
(dp149
g8
I8
sg9
(lp150
F0.0014020442962646485
aF0.0014148473739624024
aF0.0014086484909057618
aF0.0014165520668029785
asg11
I4
sg12
g13
sg14
(lp151
F0.46037611961364744
asg16
F2
sg17
I10
sg18
I8000
sg19
(F0.46037611961364744
F0.46177816390991211
F0.0014020442962646485
tp152
sbsS'IfThenElse'
p153
(iConstructs
IfThenElse
p154
(dp155
g8
I90
sg9
(lp156
F0.0026827931404113771
aF0.0026662468910217283
aF0.002658843994140625
aF0.002667403221130371
asg11
I4
sg12
g13
sg14
(lp157
F0.28556513786315918
asg16
F2
sg17
I10
sg18
I15000
sg19
(F0.28556513786315918
F0.2882239818572998
F0.002658843994140625
tp158
sbsS'NormalInstanceAttribute'
p159
(iLookups
NormalInstanceAttribute
p160
(dp161
g8
I120
sg9
(lp162
F0.0018027901649475097
aF0.0018058300018310546
aF0.0017984867095947265
aF0.0017897367477416992
asg11
I4
sg12
g13
sg14
(lp163
F0.40775616168975831
asg16
F2
sg17
I10
sg18
I10000
sg19
(F0.40775616168975831
F0.4095458984375
F0.0017897367477416992
tp164
sbsS'BuiltinFunctionCalls'
p165
(iCalls
BuiltinFunctionCalls
p166
(dp167
g8
I85
sg9
(lp168
F0.0010527968406677246
aF0.0010517001152038573
aF0.0010387897491455078
aF0.0010490894317626953
asg11
I4
sg12
g13
sg14
(lp169
F0.59681916236877441
asg16
F2
sg17
I10
sg18
I6000
sg19
(F0.59681916236877441
F0.59785795211791992
F0.0010387897491455078
tp170
sbsS'UnicodeMappings'
p171
(iUnicode
UnicodeMappings
p172
(dp173
g8
I36
sg9
(lp174
F0.002319192886352539
aF0.0022972464561462403
aF0.0022971987724304198
aF0.0023041486740112303
asg11
I4
sg12
g13
sg14
(lp175
F0.30469890832901003
asg16
F2
sg17
I10
sg18
I1000
sg19
(F0.30469890832901003
F0.30699610710144043
F0.0022971987724304198
tp176
sbsS'CompareFloats'
p177
(iNumbers
CompareFloats
p178
(dp179
g8
I150
sg9
(lp180
F0.0014026761054992676
aF0.0013947367668151855
aF0.0014026284217834473
aF0.0013987779617309569
asg11
I4
sg12
g13
sg14
(lp181
F0.56072331666946407
asg16
F2
sg17
I10
sg18
I8000
sg19
(F0.56072331666946407
F0.5621180534362793
F0.0013947367668151855
tp182
sbsS'StringMappings'
p183
(iStrings
StringMappings
p184
(dp185
g8
I36
sg9
(lp186
F0.0018022418022155761
aF0.001794886589050293
aF0.0017993330955505371
aF0.0017956256866455077
asg11
I4
sg12
g13
sg14
(lp187
F0.71010916233062749
asg16
F2
sg17
I10
sg18
I7000
sg19
(F0.71010916233062749
F0.71190404891967773
F0.001794886589050293
tp188
sbsS'TryFinally'
p189
(iWith
TryFinally
p190
(dp191
g8
I20
sg9
(lp192
F0.0014280438423156737
aF0.0014279365539550781
aF0.0014298439025878906
aF0.0014299511909484862
asg11
I4
sg12
g13
sg14
(lp193
F0.48743600845336915
asg16
F2
sg17
I10
sg18
I8000
sg19
(F0.48743600845336915
F0.48886394500732422
F0.0014279365539550781
tp194
sbsS'Recursion'
p195
(iCalls
Recursion
p196
(dp197
g8
I5
sg9
(lp198
F0.0017804384231567382
aF0.0017730474472045898
aF0.0017807364463806152
aF0.0017634987831115722
asg11
I4
sg12
g13
sg14
(lp199
F0.72149428129196169
asg16
F2
sg17
I10
sg18
I10000
sg19
(F0.72149428129196169
F0.72325778007507324
F0.0017634987831115722
tp200
sbsS'SimpleLongArithmetic'
p201
(iArithmetic
SimpleLongArithmetic
p202
(dp203
g8
I110
sg9
(lp204
F0.0010566949844360352
aF0.0010489463806152345
aF0.0010476469993591308
aF0.0010519981384277343
asg11
I4
sg12
g13
sg14
(lp205
F0.44729229211807253
asg16
F2
sg17
I10
sg18
I6000
sg19
(F0.44729229211807253
F0.44833993911743164
F0.0010476469993591308
tp206
sbsS'SimpleDictManipulation'
p207
(iDict
SimpleDictManipulation
p208
(dp209
g8
I120
sg9
(lp210
F0.0018023371696472168
aF0.0017867326736450196
aF0.0018010854721069336
aF0.0017834901809692383
asg11
I4
sg12
g13
sg14
(lp211
F0.51668846607208252
asg16
F2
sg17
I10
sg18
I10000
sg19
(F0.51668846607208252
F0.51847195625305176
F0.0017834901809692383
tp212
sbsS'WithRaiseExcept'
p213
(iWith
WithRaiseExcept
p214
(dp215
g8
I8
sg9
(lp216
F0.0017961978912353516
aF0.0018059492111206054
aF0.0018015980720520019
aF0.0017993450164794922
asg11
I4
sg12
g13
sg14
(lp217
F0.97013692855834965
asg16
F2
sg17
I10
sg18
I10000
sg19
(F0.97013692855834965
F0.97193312644958496
F0.0017961978912353516
tp218
sbsS'UnicodeProperties'
p219
(iUnicode
UnicodeProperties
p220
(dp221
g8
I40
sg9
(lp222
F0.0088657855987548835
aF0.0089002370834350593
aF0.0088872909545898438
aF0.0088901400566101067
asg11
I4
sg12
g13
sg14
(lp223
F0.53705530166625981
asg16
F2
sg17
I10
sg18
I10000
sg19
(F0.53705530166625981
F0.54592108726501465
F0.0088657855987548835
tp224
sbsS'SimpleIntFloatArithmetic'
p225
(iArithmetic
SimpleIntFloatArithmetic
p226
(dp227
g8
I110
sg9
(lp228
F0.0021274447441101073
aF0.0021311998367309569
aF0.0021183013916015623
aF0.0021358489990234374
asg11
I4
sg12
g13
sg14
(lp229
F0.32794551849365233
asg16
F2
sg17
I10
sg18
I12000
sg19
(F0.32794551849365233
F0.33006381988525391
F0.0021183013916015623
tp230
sbsS'CreateUnicodeWithConcat'
p231
(iUnicode
CreateUnicodeWithConcat
p232
(dp233
g8
I50
sg9
(lp234
F0.0014050483703613281
aF0.0013913989067077636
aF0.0014061927795410156
aF0.0014057397842407227
asg11
I4
sg12
g13
sg14
(lp235
F0.49419761896133424
asg16
F2
sg17
I10
sg18
I8000
sg19
(F0.49419761896133424
F0.49558901786804199
F0.0013913989067077636
tp236
sbsS'ListSlicing'
p237
(iLists
ListSlicing
p238
(dp239
g8
I175
sg9
(lp240
F0.0003483891487121582
aF0.00034719705581665039
aF0.00034769773483276365
aF0.00034793615341186521
asg11
I4
sg12
g13
sg14
(lp241
F0.47016996145248413
asg16
F2
sg17
I10
sg18
I80
sg19
(F0.47016996145248413
F0.47051715850830078
F0.00034719705581665039
tp242
sbsS'SimpleListComprehensions'
p243
(iLists
SimpleListComprehensions
p244
(dp245
g8
I6
sg9
(lp246
F0.00035663843154907224
aF0.00036008358001708983
aF0.00035717487335205076
aF0.00035768747329711914
asg11
I4
sg12
g13
sg14
(lp247
F0.46132949590682981
asg16
F2
sg17
I10
sg18
I2000
sg19
(F0.46132949590682981
F0.46168613433837891
F0.00035663843154907224
tp248
sbsS'CompareLongs'
p249
(iNumbers
CompareLongs
p250
(dp251
g8
I150
sg9
(lp252
F0.0012241005897521973
aF0.0012299895286560058
aF0.0012221455574035645
aF0.0012283444404602051
asg11
I4
sg12
g13
sg14
(lp253
F0.34472893476486205
asg16
F2
sg17
I10
sg18
I7000
sg19
(F0.34472893476486205
F0.34595108032226562
F0.0012221455574035645
tp254
sbsS'SimpleIntegerArithmetic'
p255
(iArithmetic
SimpleIntegerArithmetic
p256
(dp257
g8
I110
sg9
(lp258
F0.0021150946617126466
aF0.0021436452865600587
aF0.0021220922470092775
aF0.002135789394378662
asg11
I4
sg12
g13
sg14
(lp259
F0.32700577974319456
asg16
F2
sg17
I10
sg18
I12000
sg19
(F0.32700577974319456
F0.32912087440490723
F0.0021150946617126466
tp260
sbsS'SpecialClassAttribute'
p261
(iLookups
SpecialClassAttribute
p262
(dp263
g8
I120
sg9
(lp264
F0.0017716050148010253
aF0.0017799377441406251
aF0.0017869472503662109
aF0.0017622947692871095
asg11
I4
sg12
g13
sg14
(lp265
F0.52522168159484861
asg16
F2
sg17
I10
sg18
I10000
sg19
(F0.52522168159484861
F0.52698397636413574
F0.0017622947692871095
tp266
sbsS'SecondImport'
p267
(iImports
SecondImport
p268
(dp269
g8
I25
sg9
(lp270
F0.00069519281387329099
aF0.00069804191589355473
aF0.00068998336791992188
aF0.00069719552993774414
asg11
I4
sg12
g13
sg14
(lp271
F0.64897489547729492
asg16
F2
sg17
I10
sg18
I4000
sg19
(F0.64897489547729492
F0.64966487884521484
F0.00068998336791992188
tp272
sbsS'WithFinally'
p273
(iWith
WithFinally
p274
(dp275
g8
I20
sg9
(lp276
F0.0014209508895874023
aF0.0014246344566345216
aF0.0014240980148315431
aF0.0014300942420959473
asg11
I4
sg12
g13
sg14
(lp277
F0.64035513401031496
asg16
F2
sg17
I10
sg18
I8000
sg19
(F0.64035513401031496
F0.64177608489990234
F0.0014209508895874023
tp278
sbsS'TupleSlicing'
p279
(iTuples
TupleSlicing
p280
(dp281
g8
I5250
sg9
(lp282
F0.00022673606872558594
aF0.0002252340316772461
aF0.00022493600845336915
aF0.0002252340316772461
asg11
I4
sg12
g13
sg14
(lp283
F0.44206513166427613
asg16
F2
sg17
I10
sg18
I50
sg19
(F0.44206513166427613
F0.44229006767272949
F0.00022493600845336915
tp284
sbsS'SimpleFloatArithmetic'
p285
(iArithmetic
SimpleFloatArithmetic
p286
(dp287
g8
I110
sg9
(lp288
F0.002129828929901123
aF0.0021127820014953612
aF0.0021238923072814941
aF0.0021316766738891601
asg11
I4
sg12
g13
sg14
(lp289
F0.58006318807601931
asg16
F2
sg17
I10
sg18
I12000
sg19
(F0.58006318807601931
F0.58217597007751465
F0.0021127820014953612
tp290
sbsS'StringPredicates'
p291
(iStrings
StringPredicates
p292
(dp293
g8
I70
sg9
(lp294
F0.0089721441268920902
aF0.0089629411697387702
aF0.0089722394943237312
aF0.0089718461036682132
asg11
I4
sg12
g13
sg14
(lp295
F0.56777923107147221
asg16
F2
sg17
I10
sg18
I10000
sg19
(F0.56777923107147221
F0.57674217224121094
F0.0089629411697387702
tp296
sbsS'BuiltinMethodLookup'
p297
(iLookups
BuiltinMethodLookup
p298
(dp299
g8
I150
sg9
(lp300
F0.0012458801269531251
aF0.0012416839599609375
aF0.0012490391731262208
aF0.0012578845024108886
asg11
I4
sg12
g13
sg14
(lp301
F0.51004123687744141
asg16
F2
sg17
I10
sg18
I7000
sg19
(F0.51004123687744141
F0.51128292083740234
F0.0012416839599609375
tp302
sbsS'SimpleComplexArithmetic'
p303
(iArithmetic
SimpleComplexArithmetic
p304
(dp305
g8
I110
sg9
(lp306
F0.0014160990715026856
aF0.0014051556587219237
aF0.0014011979103088379
aF0.0014041543006896972
asg11
I4
sg12
g13
sg14
(lp307
F0.51577590703964238
asg16
F2
sg17
I10
sg18
I8000
sg19
(F0.51577590703964238
F0.51717710494995117
F0.0014011979103088379
tp308
sbsS'ConcatUnicode'
p309
(iUnicode
ConcatUnicode
p310
(dp311
g8
I50
sg9
(lp312
F0.001453840732574463
aF0.0014486312866210938
aF0.0014490842819213866
aF0.0014508843421936035
asg11
I4
sg12
g13
sg14
(lp313
F0.74329948425292969
asg16
F2
sg17
I10
sg18
I6000
sg19
(F0.74329948425292969
F0.74474811553955078
F0.0014486312866210938
tp314
sbsS'CompareInternedStrings'
p315
(iStrings
CompareInternedStrings
p316
(dp317
g8
I50
sg9
(lp318
F0.0054819822311401364
aF0.0054796338081359863
aF0.0054620385169982912
aF0.0054970383644104004
asg11
I4
sg12
g13
sg14
(lp319
F0.44851697683334352
asg16
F2
sg17
I10
sg18
I30000
sg19
(F0.44851697683334352
F0.4539790153503418
F0.0054620385169982912
tp320
sbsS'CompareStrings'
p321
(iStrings
CompareStrings
p322
(dp323
g8
I50
sg9
(lp324
F0.0036733984947204591
aF0.003682994842529297
aF0.0036439895629882812
aF0.0036776900291442872
asg11
I4
sg12
g13
sg14
(lp325
F0.45040702819824219
asg16
F2
sg17
I10
sg18
I20000
sg19
(F0.45040702819824219
F0.45405101776123047
F0.0036439895629882812
tp326
sbsS'SmallTuples'
p327
(iTuples
SmallTuples
p328
(dp329
g8
I60
sg9
(lp330
F0.0015761971473693848
aF0.0015905976295471191
aF0.0015899419784545898
aF0.0016002535820007324
asg11
I4
sg12
g13
sg14
(lp331
F0.48982785940170287
asg16
F2
sg17
I10
sg18
I9000
sg19
(F0.48982785940170287
F0.49140405654907227
F0.0015761971473693848
tp332
sbsS'NormalClassAttribute'
p333
(iLookups
NormalClassAttribute
p334
(dp335
g8
I120
sg9
(lp336
F0.0017879962921142577
aF0.0017852902412414551
aF0.0017931938171386718
aF0.0017740964889526368
asg11
I4
sg12
g13
sg14
(lp337
F0.51803205013275144
asg16
F2
sg17
I10
sg18
I10000
sg19
(F0.51803205013275144
F0.5198061466217041
F0.0017740964889526368
tp338
sbsS'CreateInstances'
p339
(iInstances
CreateInstances
p340
(dp341
g8
I14
sg9
(lp342
F0.0014492988586425782
aF0.0014344453811645508
aF0.0014362454414367676
aF0.0014394521713256836
asg11
I4
sg12
g13
sg14
(lp343
F0.58030736446380615
asg16
F2
sg17
I10
sg18
I8000
sg19
(F0.58030736446380615
F0.5817418098449707
F0.0014344453811645508
tp344
sbsS'DictWithStringKeys'
p345
(iDict
DictWithStringKeys
p346
(dp347
g8
I60
sg9
(lp348
F0.003595447540283203
aF0.0036147475242614747
aF0.0035745501518249512
aF0.0035895943641662599
asg11
I4
sg12
g13
sg14
(lp349
F0.42809134721755981
asg16
F2
sg17
I10
sg18
I20000
sg19
(F0.42809134721755981
F0.43166589736938477
F0.0035745501518249512
tp350
sbsS'DictCreation'
p351
(iDict
DictCreation
p352
(dp353
g8
I50
sg9
(lp354
F0.0014015555381774903
aF0.001399993896484375
aF0.0014099955558776855
aF0.0014032959938049317
asg11
I4
sg12
g13
sg14
(lp355
F0.35810494422912598
asg16
F2
sg17
I10
sg18
I8000
sg19
(F0.35810494422912598
F0.35950493812561035
F0.001399993896484375
tp356
sbsS'StringSlicing'
p357
(iStrings
StringSlicing
p358
(dp359
g8
I35
sg9
(lp360
F0.0030692934989929197
aF0.0030203461647033691
aF0.0030347466468811034
aF0.0030310392379760743
asg11
I4
sg12
g13
sg14
(lp361
F0.39815658330917358
asg16
F2
sg17
I10
sg18
I16000
sg19
(F0.39815658330917358
F0.40117692947387695
F0.0030203461647033691
tp362
sbssS'name'
p363
S'84.txt'
p364
sg11
I4
sg17
I10
sS'machine_details'
p365
(dp366
S'platform'
p367
S'Linux-4.1.7-v7+-armv7l-with-debian-8.0'
p368
sS'executable'
p369
S'/usr/bin/python2'
p370
sS'builddate'
p371
S'Mar  8 2015 00:52:26'
p372
sS'unicode'
p373
S'UCS4'
p374
sS'implementation'
p375
S'CPython'
p376
sS'compiler'
p377
S'GCC 4.9.2'
p378
sS'bits'
p379
S'32bit'
p380
sS'processor'
p381
S''
sS'buildno'
p382
S'default'
p383
sS'python'
p384
S'2.7.9'
p385
ssg12
g13
sg16
F2
sS'roundtimes'
p386
(lp387
F29.985306513309485
asg18
I1
sS'verbose'
p388
I0
sb.