(i__main__
Benchmark
p1
(dp2
S'tests'
p3
(dp4
S'SpecialInstanceAttribute'
p5
(iLookups
SpecialInstanceAttribute
p6
(dp7
S'operations'
p8
I120
sS'overhead_times'
p9
(lp10
F0.0023591518402099609
aF0.0023612499237060545
aF0.0023579359054565429
aF0.0023583412170410157
asS'calibration_runs'
p11
I4
sS'timer'
p12
S'time.time'
p13
sS'times'
p14
(lp15
F0.80529525279998782
asS'version'
p16
F2
sS'warp'
p17
I10
sS'rounds'
p18
I10000
sS'last_timing'
p19
(F0.80529525279998782
F0.80765318870544434
F0.0023579359054565429
tp20
sbsS'PythonFunctionCalls'
p21
(iCalls
PythonFunctionCalls
p22
(dp23
g8
I55
sg9
(lp24
F0.001408696174621582
aF0.001408553123474121
aF0.0014089465141296387
aF0.0014081954956054687
asg11
I4
sg12
g13
sg14
(lp25
F0.60211768150329592
asg16
F2
sg17
I10
sg18
I6000
sg19
(F0.60211768150329592
F0.60352587699890137
F0.0014081954956054687
tp26
sbsS'CompareFloatsIntegers'
p27
(iNumbers
CompareFloatsIntegers
p28
(dp29
g8
I150
sg9
(lp30
F0.0014003992080688476
aF0.0013977527618408204
aF0.001401996612548828
aF0.0013999462127685547
asg11
I4
sg12
g13
sg14
(lp31
F0.54953727722167967
asg16
F2
sg17
I10
sg18
I6000
sg19
(F0.54953727722167967
F0.55093502998352051
F0.0013977527618408204
tp32
sbsS'PythonMethodCalls'
p33
(iCalls
PythonMethodCalls
p34
(dp35
g8
I75
sg9
(lp36
F0.00072268247604370119
aF0.00071958303451538088
aF0.0007205843925476074
aF0.00071903467178344724
asg11
I4
sg12
g13
sg14
(lp37
F0.82498077154159544
asg16
F2
sg17
I10
sg18
I3000
sg19
(F0.82498077154159544
F0.82569980621337891
F0.00071903467178344724
tp38
sbsS'NestedListComprehensions'
p39
(iLists
NestedListComprehensions
p40
(dp41
g8
I6
sg9
(lp42
F0.00046733617782592776
aF0.00046619176864624021
aF0.0004664421081542969
aF0.00046553611755371092
asg11
I4
sg12
g13
sg14
(lp43
F0.66130146980285642
asg16
F2
sg17
I10
sg18
I2000
sg19
(F0.66130146980285642
F0.66176700592041016
F0.00046553611755371092
tp44
sbsS'SecondSubmoduleImport'
p45
(iImports
SecondSubmoduleImport
p46
(dp47
g8
I25
sg9
(lp48
F0.00093084573745727539
aF0.00092968940734863283
aF0.00092884302139282224
aF0.00092885494232177737
asg11
I4
sg12
g13
sg14
(lp49
F1.0479860663414002
asg16
F2
sg17
I10
sg18
I4000
sg19
(F1.0479860663414002
F1.048914909362793
F0.00092884302139282224
tp50
sbsS'DictWithIntegerKeys'
p51
(iDict
DictWithIntegerKeys
p52
(dp53
g8
I60
sg9
(lp54
F0.0046989560127258297
aF0.0046981573104858398
aF0.0046990513801574707
aF0.0046952962875366211
asg11
I4
sg12
g13
sg14
(lp55
F0.62970554828643799
asg16
F2
sg17
I10
sg18
I20000
sg19
(F0.62970554828643799
F0.63440084457397461
F0.0046952962875366211
tp56
sbsS'UnicodeSlicing'
p57
(iUnicode
UnicodeSlicing
p58
(dp59
g8
I35
sg9
(lp60
F0.0035216331481933592
aF0.0035204410552978514
aF0.003517735004425049
aF0.003518378734588623
asg11
I4
sg12
g13
sg14
(lp61
F0.72653330564498897
asg16
F2
sg17
I10
sg18
I14000
sg19
(F0.72653330564498897
F0.73005104064941406
F0.003517735004425049
tp62
sbsS'NestedForLoops'
p63
(iConstructs
NestedForLoops
p64
(dp65
g8
I50000
sg9
(lp66
F0.00011239051818847656
aF0.00011068582534790039
aF0.00011063814163208008
aF0.0001107335090637207
asg11
I4
sg12
g13
sg14
(lp67
F0.57042335271835332
asg16
F2
sg17
I10
sg18
I30
sg19
(F0.57042335271835332
F0.57053399085998535
F0.00011063814163208008
tp68
sbsS'UnicodePredicates'
p69
(iUnicode
UnicodePredicates
p70
(dp71
g8
I45
sg9
(lp72
F0.014662587642669677
aF0.014663195610046387
aF0.014661490917205811
aF0.014661228656768799
asg11
I4
sg12
g13
sg14
(lp73
F0.66896494626998904
asg16
F2
sg17
I10
sg18
I12000
sg19
(F0.66896494626998904
F0.68362617492675781
F0.014661228656768799
tp74
sbsS'ForLoops'
p75
(iConstructs
ForLoops
p76
(dp77
g8
I25
sg9
(lp78
F0.00032138824462890625
aF0.00031914710998535154
aF0.00031914710998535154
aF0.00031759738922119138
asg11
I4
sg12
g13
sg14
(lp79
F0.36318037509918211
asg16
F2
sg17
I10
sg18
I1000
sg19
(F0.36318037509918211
F0.36349797248840332
F0.00031759738922119138
tp80
sbsS'ConcatStrings'
p81
(iStrings
ConcatStrings
p82
(dp83
g8
I50
sg9
(lp84
F0.0027901768684387208
aF0.0027862310409545897
aF0.0027885794639587401
aF0.0027870416641235353
asg11
I4
sg12
g13
sg14
(lp85
F0.81762783527374272
asg16
F2
sg17
I10
sg18
I10000
sg19
(F0.81762783527374272
F0.82041406631469727
F0.0027862310409545897
tp86
sbsS'SecondPackageImport'
p87
(iImports
SecondPackageImport
p88
(dp89
g8
I25
sg9
(lp90
F0.00093324184417724614
aF0.00092909336090087893
aF0.00092984437942504887
aF0.00092940330505371089
asg11
I4
sg12
g13
sg14
(lp91
F0.85691978931427004
asg16
F2
sg17
I10
sg18
I4000
sg19
(F0.85691978931427004
F0.8578488826751709
F0.00092909336090087893
tp92
sbsS'CompareIntegers'
p93
(iNumbers
CompareIntegers
p94
(dp95
g8
I150
sg9
(lp96
F0.0028139352798461914
aF0.0028118014335632322
aF0.0028102397918701172
aF0.0028131484985351564
asg11
I4
sg12
g13
sg14
(lp97
F0.44187355041503906
asg16
F2
sg17
I10
sg18
I12000
sg19
(F0.44187355041503906
F0.44468379020690918
F0.0028102397918701172
tp98
sbsS'CreateStringsWithConcat'
p99
(iStrings
CreateStringsWithConcat
p100
(dp101
g8
I50
sg9
(lp102
F0.0047013401985168454
aF0.0046938896179199215
aF0.0046966433525085453
aF0.0046927452087402342
asg11
I4
sg12
g13
sg14
(lp103
F0.55983619689941411
asg16
F2
sg17
I10
sg18
I20000
sg19
(F0.55983619689941411
F0.5645289421081543
F0.0046927452087402342
tp104
sbsS'SmallLists'
p105
(iLists
SmallLists
p106
(dp107
g8
I85
sg9
(lp108
F0.0018716931343078613
aF0.0018699407577514649
aF0.0018721938133239747
aF0.0018691539764404297
asg11
I4
sg12
g13
sg14
(lp109
F0.64119582176208501
asg16
F2
sg17
I10
sg18
I8000
sg19
(F0.64119582176208501
F0.64306497573852539
F0.0018691539764404297
tp110
sbsS'CompareUnicode'
p111
(iUnicode
CompareUnicode
p112
(dp113
g8
I50
sg9
(lp114
F0.0036000370979309081
aF0.0036007046699523928
aF0.0035975933074951171
aF0.003598141670227051
asg11
I4
sg12
g13
sg14
(lp115
F0.56562438011169436
asg16
F2
sg17
I10
sg18
I15000
sg19
(F0.56562438011169436
F0.56922197341918945
F0.0035975933074951171
tp116
sbsS'SimpleListManipulation'
p117
(iLists
SimpleListManipulation
p118
(dp119
g8
I90
sg9
(lp120
F0.0030497431755065916
aF0.0030508875846862794
aF0.0030489921569824218
aF0.0030511975288391112
asg11
I4
sg12
g13
sg14
(lp121
F0.46802296638488772
asg16
F2
sg17
I10
sg18
I13000
sg19
(F0.46802296638488772
F0.47107195854187012
F0.0030489921569824218
tp122
sbsS'DictWithFloatKeys'
p123
(iDict
DictWithFloatKeys
p124
(dp125
g8
I60
sg9
(lp126
F0.003521549701690674
aF0.003521895408630371
aF0.0035194039344787599
aF0.0035210967063903807
asg11
I4
sg12
g13
sg14
(lp127
F0.64719547033309932
asg16
F2
sg17
I10
sg18
I15000
sg19
(F0.64719547033309932
F0.65071487426757812
F0.0035194039344787599
tp128
sbsS'CreateNewInstances'
p129
(iNewInstances
CreateNewInstances
p130
(dp131
g8
I14
sg9
(lp132
F0.0017965435981750488
aF0.0017909407615661621
aF0.0018026351928710938
aF0.0018084406852722167
asg11
I4
sg12
g13
sg14
(lp133
F0.70168715715408325
asg16
F2
sg17
I10
sg18
I6000
sg19
(F0.70168715715408325
F0.70347809791564941
F0.0017909407615661621
tp134
sbsS'TryExcept'
p135
(iExceptions
TryExcept
p136
(dp137
g8
I150
sg9
(lp138
F0.0035177469253540039
aF0.0035186409950256348
aF0.003515195846557617
aF0.0035220503807067869
asg11
I4
sg12
g13
sg14
(lp139
F0.43825893402099608
asg16
F2
sg17
I10
sg18
I15000
sg19
(F0.43825893402099608
F0.44177412986755371
F0.003515195846557617
tp140
sbsS'ComplexPythonFunctionCalls'
p141
(iCalls
ComplexPythonFunctionCalls
p142
(dp143
g8
I20
sg9
(lp144
F0.0023532509803771973
aF0.0023524999618530274
aF0.0023535966873168947
aF0.0023513436317443848
asg11
I4
sg12
g13
sg14
(lp145
F0.68859761953353882
asg16
F2
sg17
I10
sg18
I10000
sg19
(F0.68859761953353882
F0.6909489631652832
F0.0023513436317443848
tp146
sbsS'TryRaiseExcept'
p147
(iExceptions
TryRaiseExcept
p148
(dp149
g8
I8
sg9
(lp150
F0.0018714308738708497
aF0.0018719792366027831
aF0.0018707871437072753
aF0.0018728852272033691
asg11
I4
sg12
g13
sg14
(lp151
F0.76320728063583376
asg16
F2
sg17
I10
sg18
I8000
sg19
(F0.76320728063583376
F0.76507806777954102
F0.0018707871437072753
tp152
sbsS'IfThenElse'
p153
(iConstructs
IfThenElse
p154
(dp155
g8
I90
sg9
(lp156
F0.0035187482833862306
aF0.0035210967063903807
aF0.0035180926322937013
aF0.0035203456878662109
asg11
I4
sg12
g13
sg14
(lp157
F0.34177781343460084
asg16
F2
sg17
I10
sg18
I15000
sg19
(F0.34177781343460084
F0.34529590606689453
F0.0035180926322937013
tp158
sbsS'NormalInstanceAttribute'
p159
(iLookups
NormalInstanceAttribute
p160
(dp161
g8
I120
sg9
(lp162
F0.0023646831512451174
aF0.0023597955703735353
aF0.0023590326309204102
aF0.0023605823516845703
asg11
I4
sg12
g13
sg14
(lp163
F0.61373889446258545
asg16
F2
sg17
I10
sg18
I10000
sg19
(F0.61373889446258545
F0.61609792709350586
F0.0023590326309204102
tp164
sbsS'BuiltinFunctionCalls'
p165
(iCalls
BuiltinFunctionCalls
p166
(dp167
g8
I85
sg9
(lp168
F0.0014049887657165527
aF0.0014022469520568847
aF0.0014020919799804688
aF0.0014054894447326661
asg11
I4
sg12
g13
sg14
(lp169
F0.7922571182250977
asg16
F2
sg17
I10
sg18
I6000
sg19
(F0.7922571182250977
F0.79365921020507812
F0.0014020919799804688
tp170
sbsS'UnicodeMappings'
p171
(iUnicode
UnicodeMappings
p172
(dp173
g8
I36
sg9
(lp174
F0.0033615827560424805
aF0.0033426880836486816
aF0.0033371806144714355
aF0.0033404827117919922
asg11
I4
sg12
g13
sg14
(lp175
F0.65198870897293093
asg16
F2
sg17
I10
sg18
I1000
sg19
(F0.65198870897293093
F0.65532588958740234
F0.0033371806144714355
tp176
sbsS'CompareFloats'
p177
(iNumbers
CompareFloats
p178
(dp179
g8
I150
sg9
(lp180
F0.0018715858459472656
aF0.0018721342086791993
aF0.0018718838691711426
aF0.0018708825111389161
asg11
I4
sg12
g13
sg14
(lp181
F0.54051207304000859
asg16
F2
sg17
I10
sg18
I8000
sg19
(F0.54051207304000859
F0.54238295555114746
F0.0018708825111389161
tp182
sbsS'StringMappings'
p183
(iStrings
StringMappings
p184
(dp185
g8
I36
sg9
(lp186
F0.0023853421211242677
aF0.0023795366287231445
aF0.0023775935173034669
aF0.0023792862892150881
asg11
I4
sg12
g13
sg14
(lp187
F0.57733837366104124
asg16
F2
sg17
I10
sg18
I7000
sg19
(F0.57733837366104124
F0.57971596717834473
F0.0023775935173034669
tp188
sbsS'TryFinally'
p189
(iWith
TryFinally
p190
(dp191
g8
I20
sg9
(lp192
F0.0018754482269287109
aF0.0018734455108642579
aF0.0018728971481323242
aF0.001875293254852295
asg11
I4
sg12
g13
sg14
(lp193
F0.63994300365447998
asg16
F2
sg17
I10
sg18
I8000
sg19
(F0.63994300365447998
F0.6418159008026123
F0.0018728971481323242
tp194
sbsS'Recursion'
p195
(iCalls
Recursion
p196
(dp197
g8
I5
sg9
(lp198
F0.0023454308509826662
aF0.0023447871208190918
aF0.0023441910743713379
aF0.0023449897766113282
asg11
I4
sg12
g13
sg14
(lp199
F0.81906074285507202
asg16
F2
sg17
I10
sg18
I10000
sg19
(F0.81906074285507202
F0.82140493392944336
F0.0023441910743713379
tp200
sbsS'SimpleLongArithmetic'
p201
(iArithmetic
SimpleLongArithmetic
p202
(dp203
g8
I110
sg9
(lp204
F0.0014000892639160155
aF0.0014010429382324218
aF0.001399695873260498
aF0.0013994455337524414
asg11
I4
sg12
g13
sg14
(lp205
F0.5462966680526733
asg16
F2
sg17
I10
sg18
I6000
sg19
(F0.5462966680526733
F0.54769611358642578
F0.0013994455337524414
tp206
sbsS'SimpleDictManipulation'
p207
(iDict
SimpleDictManipulation
p208
(dp209
g8
I120
sg9
(lp210
F0.0023443460464477538
aF0.0023487448692321778
aF0.0023436427116394045
aF0.0023441076278686523
asg11
I4
sg12
g13
sg14
(lp211
F0.6409893155097961
asg16
F2
sg17
I10
sg18
I10000
sg19
(F0.6409893155097961
F0.64333295822143555
F0.0023436427116394045
tp212
sbsS'WithRaiseExcept'
p213
(iWith
WithRaiseExcept
p214
(dp215
g8
I8
sg9
(lp216
F0.0023494482040405272
aF0.0023459434509277345
aF0.0023447990417480467
aF0.0023474454879760741
asg11
I4
sg12
g13
sg14
(lp217
F1.5690432071685791
asg16
F2
sg17
I10
sg18
I10000
sg19
(F1.5690432071685791
F1.5713880062103271
F0.0023447990417480467
tp218
sbsS'UnicodeProperties'
p219
(iUnicode
UnicodeProperties
p220
(dp221
g8
I40
sg9
(lp222
F0.01220998764038086
aF0.012209939956665038
aF0.012208890914916993
aF0.012207150459289551
asg11
I4
sg12
g13
sg14
(lp223
F0.64225566387176514
asg16
F2
sg17
I10
sg18
I10000
sg19
(F0.64225566387176514
F0.65446281433105469
F0.012207150459289551
tp224
sbsS'SimpleIntFloatArithmetic'
p225
(iArithmetic
SimpleIntFloatArithmetic
p226
(dp227
g8
I110
sg9
(lp228
F0.0028128385543823241
aF0.0028124928474426271
aF0.0028112411499023439
aF0.00281064510345459
asg11
I4
sg12
g13
sg14
(lp229
F0.43539626598358155
asg16
F2
sg17
I10
sg18
I12000
sg19
(F0.43539626598358155
F0.43820691108703613
F0.00281064510345459
tp230
sbsS'CreateUnicodeWithConcat'
p231
(iUnicode
CreateUnicodeWithConcat
p232
(dp233
g8
I50
sg9
(lp234
F0.0018747448921203613
aF0.0018718957901000977
aF0.0018695473670959472
aF0.0018711447715759276
asg11
I4
sg12
g13
sg14
(lp235
F0.49931730031967164
asg16
F2
sg17
I10
sg18
I8000
sg19
(F0.49931730031967164
F0.50118684768676758
F0.0018695473670959472
tp236
sbsS'ListSlicing'
p237
(iLists
ListSlicing
p238
(dp239
g8
I175
sg9
(lp240
F0.00038648843765258788
aF0.000385284423828125
aF0.00038543939590454104
aF0.00038393735885620115
asg11
I4
sg12
g13
sg14
(lp241
F0.42588320970535276
asg16
F2
sg17
I10
sg18
I80
sg19
(F0.42588320970535276
F0.42626714706420898
F0.00038393735885620115
tp242
sbsS'SimpleListComprehensions'
p243
(iLists
SimpleListComprehensions
p244
(dp245
g8
I6
sg9
(lp246
F0.00046999454498291015
aF0.00046924352645874026
aF0.00046988725662231443
aF0.00046954154968261721
asg11
I4
sg12
g13
sg14
(lp247
F0.54458757638931277
asg16
F2
sg17
I10
sg18
I2000
sg19
(F0.54458757638931277
F0.54505681991577148
F0.00046924352645874026
tp248
sbsS'CompareLongs'
p249
(iNumbers
CompareLongs
p250
(dp251
g8
I150
sg9
(lp252
F0.0016363859176635742
aF0.0016344308853149414
aF0.001635277271270752
aF0.0016339302062988281
asg11
I4
sg12
g13
sg14
(lp253
F0.50540919303894039
asg16
F2
sg17
I10
sg18
I7000
sg19
(F0.50540919303894039
F0.50704312324523926
F0.0016339302062988281
tp254
sbsS'SimpleIntegerArithmetic'
p255
(iArithmetic
SimpleIntegerArithmetic
p256
(dp257
g8
I110
sg9
(lp258
F0.0028144836425781248
aF0.0028140783309936524
aF0.002815532684326172
aF0.002813088893890381
asg11
I4
sg12
g13
sg14
(lp259
F0.43351174592971803
asg16
F2
sg17
I10
sg18
I12000
sg19
(F0.43351174592971803
F0.4363248348236084
F0.002813088893890381
tp260
sbsS'SpecialClassAttribute'
p261
(iLookups
SpecialClassAttribute
p262
(dp263
g8
I120
sg9
(lp264
F0.0023576021194458008
aF0.0023542046546936035
aF0.0023544430732727051
aF0.0023540496826171876
asg11
I4
sg12
g13
sg14
(lp265
F0.7736938953399658
asg16
F2
sg17
I10
sg18
I10000
sg19
(F0.7736938953399658
F0.77604794502258301
F0.0023540496826171876
tp266
sbsS'SecondImport'
p267
(iImports
SecondImport
p268
(dp269
g8
I25
sg9
(lp270
F0.00092883110046386723
aF0.0009297370910644531
aF0.00092947483062744141
aF0.00092837810516357424
asg11
I4
sg12
g13
sg14
(lp271
F0.84123446941375735
asg16
F2
sg17
I10
sg18
I4000
sg19
(F0.84123446941375735
F0.8421628475189209
F0.00092837810516357424
tp272
sbsS'WithFinally'
p273
(iWith
WithFinally
p274
(dp275
g8
I20
sg9
(lp276
F0.0018755555152893066
aF0.0018758893013000489
aF0.0018753886222839355
aF0.0018741011619567872
asg11
I4
sg12
g13
sg14
(lp277
F0.8769019722938538
asg16
F2
sg17
I10
sg18
I8000
sg19
(F0.8769019722938538
F0.87877607345581055
F0.0018741011619567872
tp278
sbsS'TupleSlicing'
p279
(iTuples
TupleSlicing
p280
(dp281
g8
I5250
sg9
(lp282
F0.00025418996810913088
aF0.00025143623352050779
aF0.00025284290313720703
aF0.00025138854980468752
asg11
I4
sg12
g13
sg14
(lp283
F0.52745451927185061
asg16
F2
sg17
I10
sg18
I50
sg19
(F0.52745451927185061
F0.52770590782165527
F0.00025138854980468752
tp284
sbsS'SimpleFloatArithmetic'
p285
(iArithmetic
SimpleFloatArithmetic
p286
(dp287
g8
I110
sg9
(lp288
F0.002815389633178711
aF0.0028095960617065428
aF0.0028137087821960447
aF0.0028126001358032226
asg11
I4
sg12
g13
sg14
(lp289
F0.58162944316864018
asg16
F2
sg17
I10
sg18
I12000
sg19
(F0.58162944316864018
F0.58443903923034668
F0.0028095960617065428
tp290
sbsS'StringPredicates'
p291
(iStrings
StringPredicates
p292
(dp293
g8
I70
sg9
(lp294
F0.01221764087677002
aF0.012212741374969482
aF0.012211394309997559
aF0.012214696407318116
asg11
I4
sg12
g13
sg14
(lp295
F0.7091044664382935
asg16
F2
sg17
I10
sg18
I10000
sg19
(F0.7091044664382935
F0.72131586074829102
F0.012211394309997559
tp296
sbsS'BuiltinMethodLookup'
p297
(iLookups
BuiltinMethodLookup
p298
(dp299
g8
I150
sg9
(lp300
F0.001639389991760254
aF0.0016370534896850586
aF0.001635599136352539
aF0.0016412973403930665
asg11
I4
sg12
g13
sg14
(lp301
F0.64051432609558101
asg16
F2
sg17
I10
sg18
I7000
sg19
(F0.64051432609558101
F0.64214992523193359
F0.001635599136352539
tp302
sbsS'SimpleComplexArithmetic'
p303
(iArithmetic
SimpleComplexArithmetic
p304
(dp305
g8
I110
sg9
(lp306
F0.0018715858459472656
aF0.0018712282180786133
aF0.0018729329109191894
aF0.0018692255020141602
asg11
I4
sg12
g13
sg14
(lp307
F0.5477337598800659
asg16
F2
sg17
I10
sg18
I8000
sg19
(F0.5477337598800659
F0.54960298538208008
F0.0018692255020141602
tp308
sbsS'ConcatUnicode'
p309
(iUnicode
ConcatUnicode
p310
(dp311
g8
I50
sg9
(lp312
F0.0018737316131591797
aF0.0018702864646911622
aF0.0018718361854553223
aF0.0018738746643066407
asg11
I4
sg12
g13
sg14
(lp313
F0.85920583009719853
asg16
F2
sg17
I10
sg18
I6000
sg19
(F0.85920583009719853
F0.86107611656188965
F0.0018702864646911622
tp314
sbsS'CompareInternedStrings'
p315
(iStrings
CompareInternedStrings
p316
(dp317
g8
I50
sg9
(lp318
F0.0070911049842834473
aF0.0070893883705139158
aF0.0070881009101867679
aF0.0070911049842834473
asg11
I4
sg12
g13
sg14
(lp319
F0.5628808379173279
asg16
F2
sg17
I10
sg18
I30000
sg19
(F0.5628808379173279
F0.56996893882751465
F0.0070881009101867679
tp320
sbsS'CompareStrings'
p321
(iStrings
CompareStrings
p322
(dp323
g8
I50
sg9
(lp324
F0.0047665357589721678
aF0.0047657847404479984
aF0.0047637820243835449
aF0.0047637343406677244
asg11
I4
sg12
g13
sg14
(lp325
F0.49987922906875609
asg16
F2
sg17
I10
sg18
I20000
sg19
(F0.49987922906875609
F0.50464296340942383
F0.0047637343406677244
tp326
sbsS'SmallTuples'
p327
(iTuples
SmallTuples
p328
(dp329
g8
I60
sg9
(lp330
F0.0021083474159240721
aF0.0021048426628112794
aF0.002108645439147949
aF0.0021049380302429199
asg11
I4
sg12
g13
sg14
(lp331
F0.62451115846633909
asg16
F2
sg17
I10
sg18
I9000
sg19
(F0.62451115846633909
F0.62661600112915039
F0.0021048426628112794
tp332
sbsS'NormalClassAttribute'
p333
(iLookups
NormalClassAttribute
p334
(dp335
g8
I120
sg9
(lp336
F0.0023577332496643065
aF0.0023558855056762694
aF0.0023541331291198732
aF0.0023551344871520995
asg11
I4
sg12
g13
sg14
(lp337
F0.7738318562507629
asg16
F2
sg17
I10
sg18
I10000
sg19
(F0.7738318562507629
F0.77618598937988281
F0.0023541331291198732
tp338
sbsS'CreateInstances'
p339
(iInstances
CreateInstances
p340
(dp341
g8
I14
sg9
(lp342
F0.0019116997718811035
aF0.0019116520881652832
aF0.0019115924835205079
aF0.0019107937812805175
asg11
I4
sg12
g13
sg14
(lp343
F0.90421403646469112
asg16
F2
sg17
I10
sg18
I8000
sg19
(F0.90421403646469112
F0.90612483024597168
F0.0019107937812805175
tp344
sbsS'DictWithStringKeys'
p345
(iDict
DictWithStringKeys
p346
(dp347
g8
I60
sg9
(lp348
F0.0046960473060607914
aF0.0047008991241455078
aF0.0046938419342041019
aF0.0046975970268249515
asg11
I4
sg12
g13
sg14
(lp349
F0.562487268447876
asg16
F2
sg17
I10
sg18
I20000
sg19
(F0.562487268447876
F0.56718111038208008
F0.0046938419342041019
tp350
sbsS'DictCreation'
p351
(iDict
DictCreation
p352
(dp353
g8
I50
sg9
(lp354
F0.0018725395202636719
aF0.0018703937530517578
aF0.0018690943717956543
aF0.001871645450592041
asg11
I4
sg12
g13
sg14
(lp355
F0.47979699373245238
asg16
F2
sg17
I10
sg18
I8000
sg19
(F0.47979699373245238
F0.48166608810424805
F0.0018690943717956543
tp356
sbsS'StringSlicing'
p357
(iStrings
StringSlicing
p358
(dp359
g8
I35
sg9
(lp360
F0.0039826869964599606
aF0.0039802908897399901
aF0.0039821863174438477
aF0.0039808392524719235
asg11
I4
sg12
g13
sg14
(lp361
F0.51190577745437627
asg16
F2
sg17
I10
sg18
I16000
sg19
(F0.51190577745437627
F0.51588606834411621
F0.0039802908897399901
tp362
sbssS'name'
p363
S'141.txt'
p364
sg11
I4
sg17
I10
sS'machine_details'
p365
(dp366
S'platform'
p367
S'Linux-4.1.11-1-ARCH-armv7l-with-glibc2.4'
p368
sS'executable'
p369
S'/usr/bin/python2'
p370
sS'builddate'
p371
S'Sep 17 2015 18:40:31'
p372
sS'unicode'
p373
S'UCS4'
p374
sS'implementation'
p375
S'CPython'
p376
sS'compiler'
p377
S'GCC 5.2.0'
p378
sS'bits'
p379
S'32bit'
p380
sS'processor'
p381
S''
sS'buildno'
p382
S'default'
p383
sS'python'
p384
S'2.7.10'
p385
ssg12
g13
sg16
F2
sS'roundtimes'
p386
(lp387
F37.536359763145441
asg18
I1
sS'verbose'
p388
I0
sb.