(i__main__
Benchmark
p1
(dp2
S'tests'
p3
(dp4
S'SpecialInstanceAttribute'
p5
(iLookups
SpecialInstanceAttribute
p6
(dp7
S'operations'
p8
I120
sS'overhead_times'
p9
(lp10
F0.0023626446723937987
aF0.0023586988449096681
aF0.0023602008819580077
aF0.0023584485054016112
asS'calibration_runs'
p11
I4
sS'timer'
p12
S'time.time'
p13
sS'times'
p14
(lp15
F0.80682252645492558
asS'version'
p16
F2
sS'warp'
p17
I10
sS'rounds'
p18
I10000
sS'last_timing'
p19
(F0.80682252645492558
F0.80918097496032715
F0.0023584485054016112
tp20
sbsS'PythonFunctionCalls'
p21
(iCalls
PythonFunctionCalls
p22
(dp23
g8
I55
sg9
(lp24
F0.0014087915420532226
aF0.0014067530632019044
aF0.0014086484909057618
aF0.0014079928398132325
asg11
I4
sg12
g13
sg14
(lp25
F0.60232821702957151
asg16
F2
sg17
I10
sg18
I6000
sg19
(F0.60232821702957151
F0.60373497009277344
F0.0014067530632019044
tp26
sbsS'CompareFloatsIntegers'
p27
(iNumbers
CompareFloatsIntegers
p28
(dp29
g8
I150
sg9
(lp30
F0.0013983964920043946
aF0.001399695873260498
aF0.0014020442962646485
aF0.0014022469520568847
asg11
I4
sg12
g13
sg14
(lp31
F0.54948656558990483
asg16
F2
sg17
I10
sg18
I6000
sg19
(F0.54948656558990483
F0.55088496208190918
F0.0013983964920043946
tp32
sbsS'PythonMethodCalls'
p33
(iCalls
PythonMethodCalls
p34
(dp35
g8
I75
sg9
(lp36
F0.00072053670883178713
aF0.00071945190429687498
aF0.00071879625320434568
aF0.00071918964385986328
asg11
I4
sg12
g13
sg14
(lp37
F0.83356217145919798
asg16
F2
sg17
I10
sg18
I3000
sg19
(F0.83356217145919798
F0.83428096771240234
F0.00071879625320434568
tp38
sbsS'NestedListComprehensions'
p39
(iLists
NestedListComprehensions
p40
(dp41
g8
I6
sg9
(lp42
F0.00046775341033935549
aF0.00046575069427490234
aF0.00046684741973876951
aF0.00046623945236206054
asg11
I4
sg12
g13
sg14
(lp43
F0.66108715534210205
asg16
F2
sg17
I10
sg18
I2000
sg19
(F0.66108715534210205
F0.66155290603637695
F0.00046575069427490234
tp44
sbsS'SecondSubmoduleImport'
p45
(iImports
SecondSubmoduleImport
p46
(dp47
g8
I25
sg9
(lp48
F0.00093077421188354488
aF0.00092883110046386723
aF0.00093008279800415043
aF0.00092983245849609375
asg11
I4
sg12
g13
sg14
(lp49
F1.0489581108093262
asg16
F2
sg17
I10
sg18
I4000
sg19
(F1.0489581108093262
F1.04988694190979
F0.00092883110046386723
tp50
sbsS'DictWithIntegerKeys'
p51
(iDict
DictWithIntegerKeys
p52
(dp53
g8
I60
sg9
(lp54
F0.004697549343109131
aF0.0046929478645324711
aF0.0046946525573730467
aF0.0046948432922363278
asg11
I4
sg12
g13
sg14
(lp55
F0.62961300611495974
asg16
F2
sg17
I10
sg18
I20000
sg19
(F0.62961300611495974
F0.63430595397949219
F0.0046929478645324711
tp56
sbsS'UnicodeSlicing'
p57
(iUnicode
UnicodeSlicing
p58
(dp59
g8
I35
sg9
(lp60
F0.0035201430320739744
aF0.0035188436508178712
aF0.0035171985626220705
aF0.0035179495811462403
asg11
I4
sg12
g13
sg14
(lp61
F0.74413890838623042
asg16
F2
sg17
I10
sg18
I14000
sg19
(F0.74413890838623042
F0.74765610694885254
F0.0035171985626220705
tp62
sbsS'NestedForLoops'
p63
(iConstructs
NestedForLoops
p64
(dp65
g8
I50000
sg9
(lp66
F0.00011008977890014648
aF0.00011113882064819335
aF0.00010969638824462891
aF0.00010969638824462891
asg11
I4
sg12
g13
sg14
(lp67
F0.56971738338470457
asg16
F2
sg17
I10
sg18
I30
sg19
(F0.56971738338470457
F0.56982707977294922
F0.00010969638824462891
tp68
sbsS'UnicodePredicates'
p69
(iUnicode
UnicodePredicates
p70
(dp71
g8
I45
sg9
(lp72
F0.01466209888458252
aF0.014663195610046387
aF0.014663839340209961
aF0.014663994312286377
asg11
I4
sg12
g13
sg14
(lp73
F0.66892378330230717
asg16
F2
sg17
I10
sg18
I12000
sg19
(F0.66892378330230717
F0.68358588218688965
F0.01466209888458252
tp74
sbsS'ForLoops'
p75
(iConstructs
ForLoops
p76
(dp77
g8
I25
sg9
(lp78
F0.0003235936164855957
aF0.00031989812850952148
aF0.00031729936599731443
aF0.0003193497657775879
asg11
I4
sg12
g13
sg14
(lp79
F0.36304286718368528
asg16
F2
sg17
I10
sg18
I1000
sg19
(F0.36304286718368528
F0.36336016654968262
F0.00031729936599731443
tp80
sbsS'ConcatStrings'
p81
(iStrings
ConcatStrings
p82
(dp83
g8
I50
sg9
(lp84
F0.0027900338172912598
aF0.0027877926826477052
aF0.0027878880500793457
aF0.0027860879898071291
asg11
I4
sg12
g13
sg14
(lp85
F0.93017299175262447
asg16
F2
sg17
I10
sg18
I10000
sg19
(F0.93017299175262447
F0.93295907974243164
F0.0027860879898071291
tp86
sbsS'SecondPackageImport'
p87
(iImports
SecondPackageImport
p88
(dp89
g8
I25
sg9
(lp90
F0.00092974901199340822
aF0.00092943906784057615
aF0.00092879533767700197
aF0.00093020200729370122
asg11
I4
sg12
g13
sg14
(lp91
F0.85820230245590212
asg16
F2
sg17
I10
sg18
I4000
sg19
(F0.85820230245590212
F0.8591310977935791
F0.00092879533767700197
tp92
sbsS'CompareIntegers'
p93
(iNumbers
CompareIntegers
p94
(dp95
g8
I150
sg9
(lp96
F0.0028117418289184569
aF0.0028140544891357422
aF0.0028134942054748534
aF0.0028102993965148926
asg11
I4
sg12
g13
sg14
(lp97
F0.44162577390670776
asg16
F2
sg17
I10
sg18
I12000
sg19
(F0.44162577390670776
F0.44443607330322266
F0.0028102993965148926
tp98
sbsS'CreateStringsWithConcat'
p99
(iStrings
CreateStringsWithConcat
p100
(dp101
g8
I50
sg9
(lp102
F0.004693937301635742
aF0.0046925425529479982
aF0.00468904972076416
aF0.0046935915946960446
asg11
I4
sg12
g13
sg14
(lp103
F0.5602249383926392
asg16
F2
sg17
I10
sg18
I20000
sg19
(F0.5602249383926392
F0.56491398811340332
F0.00468904972076416
tp104
sbsS'SmallLists'
p105
(iLists
SmallLists
p106
(dp107
g8
I85
sg9
(lp108
F0.0018715500831604005
aF0.0018708467483520507
aF0.0018718481063842774
aF0.0018718004226684569
asg11
I4
sg12
g13
sg14
(lp109
F0.64168312549591067
asg16
F2
sg17
I10
sg18
I8000
sg19
(F0.64168312549591067
F0.6435539722442627
F0.0018708467483520507
tp110
sbsS'CompareUnicode'
p111
(iUnicode
CompareUnicode
p112
(dp113
g8
I50
sg9
(lp114
F0.0036017894744873047
aF0.0035959005355834959
aF0.0035938978195190429
aF0.0035971403121948242
asg11
I4
sg12
g13
sg14
(lp115
F0.56559922695159914
asg16
F2
sg17
I10
sg18
I15000
sg19
(F0.56559922695159914
F0.56919312477111816
F0.0035938978195190429
tp116
sbsS'SimpleListManipulation'
p117
(iLists
SimpleListManipulation
p118
(dp119
g8
I90
sg9
(lp120
F0.0030493855476379393
aF0.0030517816543579102
aF0.0030495285987854003
aF0.0030515789985656738
asg11
I4
sg12
g13
sg14
(lp121
F0.46737955808639525
asg16
F2
sg17
I10
sg18
I13000
sg19
(F0.46737955808639525
F0.4704289436340332
F0.0030493855476379393
tp122
sbsS'DictWithFloatKeys'
p123
(iDict
DictWithFloatKeys
p124
(dp125
g8
I60
sg9
(lp126
F0.003517639636993408
aF0.003520035743713379
aF0.0035168290138244628
aF0.0035183906555175783
asg11
I4
sg12
g13
sg14
(lp127
F0.64690622091293337
asg16
F2
sg17
I10
sg18
I15000
sg19
(F0.64690622091293337
F0.65042304992675781
F0.0035168290138244628
tp128
sbsS'CreateNewInstances'
p129
(iNewInstances
CreateNewInstances
p130
(dp131
g8
I14
sg9
(lp132
F0.001794445514678955
aF0.0017940521240234375
aF0.0018062472343444824
aF0.0018089413642883301
asg11
I4
sg12
g13
sg14
(lp133
F0.70386795997619633
asg16
F2
sg17
I10
sg18
I6000
sg19
(F0.70386795997619633
F0.70566201210021973
F0.0017940521240234375
tp134
sbsS'TryExcept'
p135
(iExceptions
TryExcept
p136
(dp137
g8
I150
sg9
(lp138
F0.0035178422927856444
aF0.0035172462463378905
aF0.0035199522972106934
aF0.0035182476043701173
asg11
I4
sg12
g13
sg14
(lp139
F0.43820085525512698
asg16
F2
sg17
I10
sg18
I15000
sg19
(F0.43820085525512698
F0.44171810150146484
F0.0035172462463378905
tp140
sbsS'ComplexPythonFunctionCalls'
p141
(iCalls
ComplexPythonFunctionCalls
p142
(dp143
g8
I20
sg9
(lp144
F0.0023533463478088378
aF0.0023532509803771973
aF0.0023526430130004885
aF0.0023527503013610839
asg11
I4
sg12
g13
sg14
(lp145
F0.68825538158416744
asg16
F2
sg17
I10
sg18
I10000
sg19
(F0.68825538158416744
F0.69060802459716797
F0.0023526430130004885
tp146
sbsS'TryRaiseExcept'
p147
(iExceptions
TryRaiseExcept
p148
(dp149
g8
I8
sg9
(lp150
F0.0018726944923400878
aF0.0018734931945800781
aF0.0018718481063842774
aF0.0018720984458923339
asg11
I4
sg12
g13
sg14
(lp151
F0.76013109683990476
asg16
F2
sg17
I10
sg18
I8000
sg19
(F0.76013109683990476
F0.76200294494628906
F0.0018718481063842774
tp152
sbsS'IfThenElse'
p153
(iConstructs
IfThenElse
p154
(dp155
g8
I90
sg9
(lp156
F0.0035227894783020019
aF0.0035181879997253419
aF0.0035181403160095214
aF0.0035186886787414553
asg11
I4
sg12
g13
sg14
(lp157
F0.34167095422744753
asg16
F2
sg17
I10
sg18
I15000
sg19
(F0.34167095422744753
F0.34518909454345703
F0.0035181403160095214
tp158
sbsS'NormalInstanceAttribute'
p159
(iLookups
NormalInstanceAttribute
p160
(dp161
g8
I120
sg9
(lp162
F0.002358996868133545
aF0.002358555793762207
aF0.0023595452308654784
aF0.002361297607421875
asg11
I4
sg12
g13
sg14
(lp163
F0.61549246311187744
asg16
F2
sg17
I10
sg18
I10000
sg19
(F0.61549246311187744
F0.61785101890563965
F0.002358555793762207
tp164
sbsS'BuiltinFunctionCalls'
p165
(iCalls
BuiltinFunctionCalls
p166
(dp167
g8
I85
sg9
(lp168
F0.001410996913909912
aF0.0014044523239135742
aF0.0014004468917846679
aF0.0013995885848999024
asg11
I4
sg12
g13
sg14
(lp169
F0.79333822727203374
asg16
F2
sg17
I10
sg18
I6000
sg19
(F0.79333822727203374
F0.79473781585693359
F0.0013995885848999024
tp170
sbsS'UnicodeMappings'
p171
(iUnicode
UnicodeMappings
p172
(dp173
g8
I36
sg9
(lp174
F0.0033728957176208498
aF0.0033439397811889648
aF0.003347146511077881
aF0.0033512949943542481
asg11
I4
sg12
g13
sg14
(lp175
F0.65150988101959229
asg16
F2
sg17
I10
sg18
I1000
sg19
(F0.65150988101959229
F0.65485382080078125
F0.0033439397811889648
tp176
sbsS'CompareFloats'
p177
(iNumbers
CompareFloats
p178
(dp179
g8
I150
sg9
(lp180
F0.0018706321716308594
aF0.0018722772598266601
aF0.0018705844879150391
aF0.0018718838691711426
asg11
I4
sg12
g13
sg14
(lp181
F0.54051856994628911
asg16
F2
sg17
I10
sg18
I8000
sg19
(F0.54051856994628911
F0.5423891544342041
F0.0018705844879150391
tp182
sbsS'StringMappings'
p183
(iStrings
StringMappings
p184
(dp185
g8
I36
sg9
(lp186
F0.0023865461349487304
aF0.0023796439170837404
aF0.0023810029029846191
aF0.0023834466934204101
asg11
I4
sg12
g13
sg14
(lp187
F0.57993723154067989
asg16
F2
sg17
I10
sg18
I7000
sg19
(F0.57993723154067989
F0.58231687545776367
F0.0023796439170837404
tp188
sbsS'TryFinally'
p189
(iWith
TryFinally
p190
(dp191
g8
I20
sg9
(lp192
F0.0018774032592773437
aF0.0018720984458923339
aF0.0018759965896606445
aF0.0018754482269287109
asg11
I4
sg12
g13
sg14
(lp193
F0.6393808960914612
asg16
F2
sg17
I10
sg18
I8000
sg19
(F0.6393808960914612
F0.64125299453735352
F0.0018720984458923339
tp194
sbsS'Recursion'
p195
(iCalls
Recursion
p196
(dp197
g8
I5
sg9
(lp198
F0.0023455023765563965
aF0.002343297004699707
aF0.0023445963859558107
aF0.0023459434509277345
asg11
I4
sg12
g13
sg14
(lp199
F0.81839549541473389
asg16
F2
sg17
I10
sg18
I10000
sg19
(F0.81839549541473389
F0.82073879241943359
F0.002343297004699707
tp200
sbsS'SimpleLongArithmetic'
p201
(iArithmetic
SimpleLongArithmetic
p202
(dp203
g8
I110
sg9
(lp204
F0.0014002323150634766
aF0.0013983845710754395
aF0.0014018416404724121
aF0.0014000415802001953
asg11
I4
sg12
g13
sg14
(lp205
F0.53567665815353394
asg16
F2
sg17
I10
sg18
I6000
sg19
(F0.53567665815353394
F0.53707504272460938
F0.0013983845710754395
tp206
sbsS'SimpleDictManipulation'
p207
(iDict
SimpleDictManipulation
p208
(dp209
g8
I120
sg9
(lp210
F0.0023459434509277345
aF0.0023424863815307618
aF0.002341639995574951
aF0.0023411035537719725
asg11
I4
sg12
g13
sg14
(lp211
F0.64083473682403569
asg16
F2
sg17
I10
sg18
I10000
sg19
(F0.64083473682403569
F0.64317584037780762
F0.0023411035537719725
tp212
sbsS'WithRaiseExcept'
p213
(iWith
WithRaiseExcept
p214
(dp215
g8
I8
sg9
(lp216
F0.0023468494415283202
aF0.002347695827484131
aF0.0023447513580322266
aF0.0023462414741516114
asg11
I4
sg12
g13
sg14
(lp217
F1.5617133140563966
asg16
F2
sg17
I10
sg18
I10000
sg19
(F1.5617133140563966
F1.5640580654144287
F0.0023447513580322266
tp218
sbsS'UnicodeProperties'
p219
(iUnicode
UnicodeProperties
p220
(dp221
g8
I40
sg9
(lp222
F0.012214148044586181
aF0.012208950519561768
aF0.012210750579833984
aF0.012212145328521728
asg11
I4
sg12
g13
sg14
(lp223
F0.64207409620285039
asg16
F2
sg17
I10
sg18
I10000
sg19
(F0.64207409620285039
F0.65428304672241211
F0.012208950519561768
tp224
sbsS'SimpleIntFloatArithmetic'
p225
(iArithmetic
SimpleIntFloatArithmetic
p226
(dp227
g8
I110
sg9
(lp228
F0.0028096914291381838
aF0.00281064510345459
aF0.0028115391731262209
aF0.002808988094329834
asg11
I4
sg12
g13
sg14
(lp229
F0.43534904718399048
asg16
F2
sg17
I10
sg18
I12000
sg19
(F0.43534904718399048
F0.43815803527832031
F0.002808988094329834
tp230
sbsS'CreateUnicodeWithConcat'
p231
(iUnicode
CreateUnicodeWithConcat
p232
(dp233
g8
I50
sg9
(lp234
F0.0018728494644165039
aF0.00187150239944458
aF0.0018727540969848632
aF0.0018690466880798341
asg11
I4
sg12
g13
sg14
(lp235
F0.5097979664802551
asg16
F2
sg17
I10
sg18
I8000
sg19
(F0.5097979664802551
F0.51166701316833496
F0.0018690466880798341
tp236
sbsS'ListSlicing'
p237
(iLists
ListSlicing
p238
(dp239
g8
I175
sg9
(lp240
F0.00038468837738037109
aF0.00038459300994873045
aF0.00038340091705322263
aF0.00038448572158813479
asg11
I4
sg12
g13
sg14
(lp241
F0.42728850841522215
asg16
F2
sg17
I10
sg18
I80
sg19
(F0.42728850841522215
F0.42767190933227539
F0.00038340091705322263
tp242
sbsS'SimpleListComprehensions'
p243
(iLists
SimpleListComprehensions
p244
(dp245
g8
I6
sg9
(lp246
F0.00047124624252319335
aF0.00046949386596679689
aF0.00046944618225097656
aF0.00047043561935424807
asg11
I4
sg12
g13
sg14
(lp247
F0.55037760734558105
asg16
F2
sg17
I10
sg18
I2000
sg19
(F0.55037760734558105
F0.55084705352783203
F0.00046944618225097656
tp248
sbsS'CompareLongs'
p249
(iNumbers
CompareLongs
p250
(dp251
g8
I150
sg9
(lp252
F0.001635134220123291
aF0.0016365766525268555
aF0.0016358852386474609
aF0.0016351819038391113
asg11
I4
sg12
g13
sg14
(lp253
F0.50479596853256226
asg16
F2
sg17
I10
sg18
I7000
sg19
(F0.50479596853256226
F0.50643110275268555
F0.001635134220123291
tp254
sbsS'SimpleIntegerArithmetic'
p255
(iArithmetic
SimpleIntegerArithmetic
p256
(dp257
g8
I110
sg9
(lp258
F0.0028149366378784181
aF0.0028107881546020506
aF0.0028101325035095213
aF0.0028126835823059082
asg11
I4
sg12
g13
sg14
(lp259
F0.4333978772163391
asg16
F2
sg17
I10
sg18
I12000
sg19
(F0.4333978772163391
F0.43620800971984863
F0.0028101325035095213
tp260
sbsS'SpecialClassAttribute'
p261
(iLookups
SpecialClassAttribute
p262
(dp263
g8
I120
sg9
(lp264
F0.0023574471473693849
aF0.0023536562919616701
aF0.0023563027381896971
aF0.0023556470870971678
asg11
I4
sg12
g13
sg14
(lp265
F0.79991818666458125
asg16
F2
sg17
I10
sg18
I10000
sg19
(F0.79991818666458125
F0.80227184295654297
F0.0023536562919616701
tp266
sbsS'SecondImport'
p267
(iImports
SecondImport
p268
(dp269
g8
I25
sg9
(lp270
F0.0009288787841796875
aF0.00092903375625610354
aF0.00093097686767578129
aF0.0009295344352722168
asg11
I4
sg12
g13
sg14
(lp271
F0.84204506874084473
asg16
F2
sg17
I10
sg18
I4000
sg19
(F0.84204506874084473
F0.84297394752502441
F0.0009288787841796875
tp272
sbsS'WithFinally'
p273
(iWith
WithFinally
p274
(dp275
g8
I20
sg9
(lp276
F0.0018756270408630371
aF0.0018787384033203125
aF0.001874995231628418
aF0.0018769383430480957
asg11
I4
sg12
g13
sg14
(lp277
F0.87640898227691655
asg16
F2
sg17
I10
sg18
I8000
sg19
(F0.87640898227691655
F0.87828397750854492
F0.001874995231628418
tp278
sbsS'TupleSlicing'
p279
(iTuples
TupleSlicing
p280
(dp281
g8
I5250
sg9
(lp282
F0.00025478601455688479
aF0.00025483369827270506
aF0.00025323629379272463
aF0.00025458335876464843
asg11
I4
sg12
g13
sg14
(lp283
F0.53039475679397585
asg16
F2
sg17
I10
sg18
I50
sg19
(F0.53039475679397585
F0.53064799308776855
F0.00025323629379272463
tp284
sbsS'SimpleFloatArithmetic'
p285
(iArithmetic
SimpleFloatArithmetic
p286
(dp287
g8
I110
sg9
(lp288
F0.0028121471405029297
aF0.0028117418289184569
aF0.0028140068054199217
aF0.0028102517127990721
asg11
I4
sg12
g13
sg14
(lp289
F0.58132575750350957
asg16
F2
sg17
I10
sg18
I12000
sg19
(F0.58132575750350957
F0.58413600921630859
F0.0028102517127990721
tp290
sbsS'StringPredicates'
p291
(iStrings
StringPredicates
p292
(dp293
g8
I70
sg9
(lp294
F0.012213492393493652
aF0.012215399742126464
aF0.012213349342346191
aF0.012211990356445313
asg11
I4
sg12
g13
sg14
(lp295
F0.7092180728912354
asg16
F2
sg17
I10
sg18
I10000
sg19
(F0.7092180728912354
F0.72143006324768066
F0.012211990356445313
tp296
sbsS'BuiltinMethodLookup'
p297
(iLookups
BuiltinMethodLookup
p298
(dp299
g8
I150
sg9
(lp300
F0.0016399025917053223
aF0.001636803150177002
aF0.0016367554664611817
aF0.0016388416290283204
asg11
I4
sg12
g13
sg14
(lp301
F0.64034436941146855
asg16
F2
sg17
I10
sg18
I7000
sg19
(F0.64034436941146855
F0.64198112487792969
F0.0016367554664611817
tp302
sbsS'SimpleComplexArithmetic'
p303
(iArithmetic
SimpleComplexArithmetic
p304
(dp305
g8
I110
sg9
(lp306
F0.0018704533576965332
aF0.0018706440925598145
aF0.0018700480461120606
aF0.0018719077110290528
asg11
I4
sg12
g13
sg14
(lp307
F0.54750190973281865
asg16
F2
sg17
I10
sg18
I8000
sg19
(F0.54750190973281865
F0.54937195777893066
F0.0018700480461120606
tp308
sbsS'ConcatUnicode'
p309
(iUnicode
ConcatUnicode
p310
(dp311
g8
I50
sg9
(lp312
F0.0018762826919555664
aF0.0018734455108642579
aF0.0018737316131591797
aF0.0018707871437072753
asg11
I4
sg12
g13
sg14
(lp313
F0.87879332304000857
asg16
F2
sg17
I10
sg18
I6000
sg19
(F0.87879332304000857
F0.88066411018371582
F0.0018707871437072753
tp314
sbsS'CompareInternedStrings'
p315
(iStrings
CompareInternedStrings
p316
(dp317
g8
I50
sg9
(lp318
F0.0070931434631347655
aF0.0070807456970214842
aF0.007088494300842285
aF0.0070855855941772457
asg11
I4
sg12
g13
sg14
(lp319
F0.56275110244750981
asg16
F2
sg17
I10
sg18
I30000
sg19
(F0.56275110244750981
F0.56983184814453125
F0.0070807456970214842
tp320
sbsS'CompareStrings'
p321
(iStrings
CompareStrings
p322
(dp323
g8
I50
sg9
(lp324
F0.0047655463218688968
aF0.0047626495361328125
aF0.0047641992568969727
aF0.0047614932060241703
asg11
I4
sg12
g13
sg14
(lp325
F0.4997934937477112
asg16
F2
sg17
I10
sg18
I20000
sg19
(F0.4997934937477112
F0.50455498695373535
F0.0047614932060241703
tp326
sbsS'SmallTuples'
p327
(iTuples
SmallTuples
p328
(dp329
g8
I60
sg9
(lp330
F0.0021096467971801758
aF0.0021059036254882811
aF0.0021072506904602053
aF0.0021053433418273928
asg11
I4
sg12
g13
sg14
(lp331
F0.62050951719284053
asg16
F2
sg17
I10
sg18
I9000
sg19
(F0.62050951719284053
F0.62261486053466797
F0.0021053433418273928
tp332
sbsS'NormalClassAttribute'
p333
(iLookups
NormalClassAttribute
p334
(dp335
g8
I120
sg9
(lp336
F0.0023620486259460448
aF0.0023552417755126954
aF0.0023546934127807615
aF0.0023563027381896971
asg11
I4
sg12
g13
sg14
(lp337
F0.80333631038665776
asg16
F2
sg17
I10
sg18
I10000
sg19
(F0.80333631038665776
F0.80569100379943848
F0.0023546934127807615
tp338
sbsS'CreateInstances'
p339
(iInstances
CreateInstances
p340
(dp341
g8
I14
sg9
(lp342
F0.001913440227508545
aF0.0019101500511169434
aF0.0019086956977844237
aF0.0019109487533569337
asg11
I4
sg12
g13
sg14
(lp343
F0.90048536062240603
asg16
F2
sg17
I10
sg18
I8000
sg19
(F0.90048536062240603
F0.90239405632019043
F0.0019086956977844237
tp344
sbsS'DictWithStringKeys'
p345
(iDict
DictWithStringKeys
p346
(dp347
g8
I60
sg9
(lp348
F0.0046952486038208006
aF0.0046936869621276855
aF0.004695689678192139
aF0.0046956419944763185
asg11
I4
sg12
g13
sg14
(lp349
F0.56151038408279419
asg16
F2
sg17
I10
sg18
I20000
sg19
(F0.56151038408279419
F0.56620407104492188
F0.0046936869621276855
tp350
sbsS'DictCreation'
p351
(iDict
DictCreation
p352
(dp353
g8
I50
sg9
(lp354
F0.0018741965293884277
aF0.0018698453903198242
aF0.0018705964088439942
aF0.0018733978271484376
asg11
I4
sg12
g13
sg14
(lp355
F0.47954900264739991
asg16
F2
sg17
I10
sg18
I8000
sg19
(F0.47954900264739991
F0.48141884803771973
F0.0018698453903198242
tp356
sbsS'StringSlicing'
p357
(iStrings
StringSlicing
p358
(dp359
g8
I35
sg9
(lp360
F0.0039793491363525387
aF0.0039789438247680668
aF0.0039777994155883786
aF0.0039781928062438965
asg11
I4
sg12
g13
sg14
(lp361
F0.50784537792205808
asg16
F2
sg17
I10
sg18
I16000
sg19
(F0.50784537792205808
F0.51182317733764648
F0.0039777994155883786
tp362
sbssS'name'
p363
S'235.txt'
p364
sg11
I4
sg17
I10
sS'machine_details'
p365
(dp366
S'platform'
p367
S'Linux-4.1.11-1-ARCH-armv7l-with-glibc2.4'
p368
sS'executable'
p369
S'/usr/bin/python2'
p370
sS'builddate'
p371
S'Sep 17 2015 18:40:31'
p372
sS'unicode'
p373
S'UCS4'
p374
sS'implementation'
p375
S'CPython'
p376
sS'compiler'
p377
S'GCC 5.2.0'
p378
sS'bits'
p379
S'32bit'
p380
sS'processor'
p381
S''
sS'buildno'
p382
S'default'
p383
sS'python'
p384
S'2.7.10'
p385
ssg12
g13
sg16
F2
sS'roundtimes'
p386
(lp387
F37.743210601806638
asg18
I1
sS'verbose'
p388
I0
sb.