(i__main__
Benchmark
p1
(dp2
S'tests'
p3
(dp4
S'SpecialInstanceAttribute'
p5
(iLookups
SpecialInstanceAttribute
p6
(dp7
S'operations'
p8
I120
sS'overhead_times'
p9
(lp10
F0.0023598432540893554
aF0.0023617029190063478
aF0.0023602008819580077
aF0.0023589015007019045
asS'calibration_runs'
p11
I4
sS'timer'
p12
S'time.time'
p13
sS'times'
p14
(lp15
F0.82542897462844844
asS'version'
p16
F2
sS'warp'
p17
I10
sS'rounds'
p18
I10000
sS'last_timing'
p19
(F0.82542897462844844
F0.82778787612915039
F0.0023589015007019045
tp20
sbsS'PythonFunctionCalls'
p21
(iCalls
PythonFunctionCalls
p22
(dp23
g8
I55
sg9
(lp24
F0.0014091968536376954
aF0.0014090418815612793
aF0.0014099478721618652
aF0.0014082431793212891
asg11
I4
sg12
g13
sg14
(lp25
F0.60592660903930662
asg16
F2
sg17
I10
sg18
I6000
sg19
(F0.60592660903930662
F0.60733485221862793
F0.0014082431793212891
tp26
sbsS'CompareFloatsIntegers'
p27
(iNumbers
CompareFloatsIntegers
p28
(dp29
g8
I150
sg9
(lp30
F0.0013890862464904785
aF0.0013902544975280761
aF0.0013883471488952636
aF0.0013898015022277832
asg11
I4
sg12
g13
sg14
(lp31
F0.56855961084365847
asg16
F2
sg17
I10
sg18
I6000
sg19
(F0.56855961084365847
F0.56994795799255371
F0.0013883471488952636
tp32
sbsS'PythonMethodCalls'
p33
(iCalls
PythonMethodCalls
p34
(dp35
g8
I75
sg9
(lp36
F0.00072230100631713872
aF0.00071835517883300781
aF0.00072050094604492188
aF0.00071954727172851562
asg11
I4
sg12
g13
sg14
(lp37
F0.83722758293151855
asg16
F2
sg17
I10
sg18
I3000
sg19
(F0.83722758293151855
F0.83794593811035156
F0.00071835517883300781
tp38
sbsS'NestedListComprehensions'
p39
(iLists
NestedListComprehensions
p40
(dp41
g8
I6
sg9
(lp42
F0.00046843290328979492
aF0.00046688318252563477
aF0.00046788454055786134
aF0.00046828985214233401
asg11
I4
sg12
g13
sg14
(lp43
F0.67517012357711792
asg16
F2
sg17
I10
sg18
I2000
sg19
(F0.67517012357711792
F0.67563700675964355
F0.00046688318252563477
tp44
sbsS'SecondSubmoduleImport'
p45
(iImports
SecondSubmoduleImport
p46
(dp47
g8
I25
sg9
(lp48
F0.00092979669570922849
aF0.00093034505844116213
aF0.0009291410446166992
aF0.00093023777008056636
asg11
I4
sg12
g13
sg14
(lp49
F1.0641348123550416
asg16
F2
sg17
I10
sg18
I4000
sg19
(F1.0641348123550416
F1.0650639533996582
F0.0009291410446166992
tp50
sbsS'DictWithIntegerKeys'
p51
(iDict
DictWithIntegerKeys
p52
(dp53
g8
I60
sg9
(lp54
F0.0046600461006164554
aF0.0046592950820922852
aF0.0046597480773925785
aF0.0046594381332397457
asg11
I4
sg12
g13
sg14
(lp55
F0.64783370494842529
asg16
F2
sg17
I10
sg18
I20000
sg19
(F0.64783370494842529
F0.65249300003051758
F0.0046592950820922852
tp56
sbsS'UnicodeSlicing'
p57
(iUnicode
UnicodeSlicing
p58
(dp59
g8
I35
sg9
(lp60
F0.0035229563713073731
aF0.0035187005996704102
aF0.0035210490226745606
aF0.0035169005393981935
asg11
I4
sg12
g13
sg14
(lp61
F0.73874117136001582
asg16
F2
sg17
I10
sg18
I14000
sg19
(F0.73874117136001582
F0.74225807189941406
F0.0035169005393981935
tp62
sbsS'NestedForLoops'
p63
(iConstructs
NestedForLoops
p64
(dp65
g8
I50000
sg9
(lp66
F0.00011279582977294922
aF0.00011074542999267578
aF0.00011065006256103516
aF0.00011059045791625977
asg11
I4
sg12
g13
sg14
(lp67
F0.58116630315780637
asg16
F2
sg17
I10
sg18
I30
sg19
(F0.58116630315780637
F0.58127689361572266
F0.00011059045791625977
tp68
sbsS'UnicodePredicates'
p69
(iUnicode
UnicodePredicates
p70
(dp71
g8
I45
sg9
(lp72
F0.015104377269744873
aF0.015103888511657716
aF0.015103638172149658
aF0.015104532241821289
asg11
I4
sg12
g13
sg14
(lp73
F0.67011135816574097
asg16
F2
sg17
I10
sg18
I12000
sg19
(F0.67011135816574097
F0.68521499633789062
F0.015103638172149658
tp74
sbsS'ForLoops'
p75
(iConstructs
ForLoops
p76
(dp77
g8
I25
sg9
(lp78
F0.00032184123992919924
aF0.00031923055648803712
aF0.00031763315200805664
aF0.00031929016113281251
asg11
I4
sg12
g13
sg14
(lp79
F0.36375540494918823
asg16
F2
sg17
I10
sg18
I1000
sg19
(F0.36375540494918823
F0.36407303810119629
F0.00031763315200805664
tp80
sbsS'ConcatStrings'
p81
(iStrings
ConcatStrings
p82
(dp83
g8
I50
sg9
(lp84
F0.002770543098449707
aF0.0027694344520568849
aF0.0027692437171936033
aF0.0027696013450622557
asg11
I4
sg12
g13
sg14
(lp85
F0.92814968824386601
asg16
F2
sg17
I10
sg18
I10000
sg19
(F0.92814968824386601
F0.93091893196105957
F0.0027692437171936033
tp86
sbsS'SecondPackageImport'
p87
(iImports
SecondPackageImport
p88
(dp89
g8
I25
sg9
(lp90
F0.00092998743057250979
aF0.00092859268188476567
aF0.00093075037002563474
aF0.0009293437004089355
asg11
I4
sg12
g13
sg14
(lp91
F0.86849932670593266
asg16
F2
sg17
I10
sg18
I4000
sg19
(F0.86849932670593266
F0.86942791938781738
F0.00092859268188476567
tp92
sbsS'CompareIntegers'
p93
(iNumbers
CompareIntegers
p94
(dp95
g8
I150
sg9
(lp96
F0.0027919530868530272
aF0.0027900934219360352
aF0.002788102626800537
aF0.0027894496917724608
asg11
I4
sg12
g13
sg14
(lp97
F0.44171091318130495
asg16
F2
sg17
I10
sg18
I12000
sg19
(F0.44171091318130495
F0.44449901580810547
F0.002788102626800537
tp98
sbsS'CreateStringsWithConcat'
p99
(iStrings
CreateStringsWithConcat
p100
(dp101
g8
I50
sg9
(lp102
F0.0046615362167358402
aF0.0046588778495788574
aF0.0046568274497985843
aF0.0046586394309997559
asg11
I4
sg12
g13
sg14
(lp103
F0.56097027063369753
asg16
F2
sg17
I10
sg18
I20000
sg19
(F0.56097027063369753
F0.56562709808349609
F0.0046568274497985843
tp104
sbsS'SmallLists'
p105
(iLists
SmallLists
p106
(dp107
g8
I85
sg9
(lp108
F0.0018713474273681641
aF0.0018702507019042968
aF0.0018687963485717774
aF0.0018696904182434082
asg11
I4
sg12
g13
sg14
(lp109
F0.65467922687530522
asg16
F2
sg17
I10
sg18
I8000
sg19
(F0.65467922687530522
F0.65654802322387695
F0.0018687963485717774
tp110
sbsS'CompareUnicode'
p111
(iUnicode
CompareUnicode
p112
(dp113
g8
I50
sg9
(lp114
F0.0035759806632995605
aF0.0035712361335754395
aF0.0035707354545593262
aF0.003571629524230957
asg11
I4
sg12
g13
sg14
(lp115
F0.56565409898757935
asg16
F2
sg17
I10
sg18
I15000
sg19
(F0.56565409898757935
F0.56922483444213867
F0.0035707354545593262
tp116
sbsS'SimpleListManipulation'
p117
(iLists
SimpleListManipulation
p118
(dp119
g8
I90
sg9
(lp120
F0.0030479907989501955
aF0.0030478477478027345
aF0.003052246570587158
aF0.0030513525009155272
asg11
I4
sg12
g13
sg14
(lp121
F0.47457013130187986
asg16
F2
sg17
I10
sg18
I13000
sg19
(F0.47457013130187986
F0.47761797904968262
F0.0030478477478027345
tp122
sbsS'DictWithFloatKeys'
p123
(iDict
DictWithFloatKeys
p124
(dp125
g8
I60
sg9
(lp126
F0.0034946918487548826
aF0.0034923791885375977
aF0.0034937381744384764
aF0.0034904360771179201
asg11
I4
sg12
g13
sg14
(lp127
F0.65880967378616329
asg16
F2
sg17
I10
sg18
I15000
sg19
(F0.65880967378616329
F0.66230010986328125
F0.0034904360771179201
tp128
sbsS'CreateNewInstances'
p129
(iNewInstances
CreateNewInstances
p130
(dp131
g8
I14
sg9
(lp132
F0.0017888307571411132
aF0.0017817378044128417
aF0.0017930865287780762
aF0.0017992854118347168
asg11
I4
sg12
g13
sg14
(lp133
F0.71386619806289675
asg16
F2
sg17
I10
sg18
I6000
sg19
(F0.71386619806289675
F0.71564793586730957
F0.0017817378044128417
tp134
sbsS'TryExcept'
p135
(iExceptions
TryExcept
p136
(dp137
g8
I150
sg9
(lp138
F0.0035157918930053709
aF0.0035167932510375977
aF0.0035187959671020507
aF0.0035166501998901366
asg11
I4
sg12
g13
sg14
(lp139
F0.43826215267181395
asg16
F2
sg17
I10
sg18
I15000
sg19
(F0.43826215267181395
F0.44177794456481934
F0.0035157918930053709
tp140
sbsS'ComplexPythonFunctionCalls'
p141
(iCalls
ComplexPythonFunctionCalls
p142
(dp143
g8
I20
sg9
(lp144
F0.0023354411125183104
aF0.0023346424102783205
aF0.002332592010498047
aF0.0023369431495666505
asg11
I4
sg12
g13
sg14
(lp145
F0.70430741310119627
asg16
F2
sg17
I10
sg18
I10000
sg19
(F0.70430741310119627
F0.70664000511169434
F0.002332592010498047
tp146
sbsS'TryRaiseExcept'
p147
(iExceptions
TryRaiseExcept
p148
(dp149
g8
I8
sg9
(lp150
F0.0018709540367126466
aF0.0018703937530517578
aF0.0018733978271484376
aF0.0018726944923400878
asg11
I4
sg12
g13
sg14
(lp151
F0.76195049285888672
asg16
F2
sg17
I10
sg18
I8000
sg19
(F0.76195049285888672
F0.76382088661193848
F0.0018703937530517578
tp152
sbsS'IfThenElse'
p153
(iConstructs
IfThenElse
p154
(dp155
g8
I90
sg9
(lp156
F0.0035202860832214355
aF0.0035214900970458986
aF0.003517937660217285
aF0.0035181283950805665
asg11
I4
sg12
g13
sg14
(lp157
F0.34205691814422606
asg16
F2
sg17
I10
sg18
I15000
sg19
(F0.34205691814422606
F0.34557485580444336
F0.003517937660217285
tp158
sbsS'NormalInstanceAttribute'
p159
(iLookups
NormalInstanceAttribute
p160
(dp161
g8
I120
sg9
(lp162
F0.0023615002632141114
aF0.0023562431335449217
aF0.0023603916168212892
aF0.0023608922958374022
asg11
I4
sg12
g13
sg14
(lp163
F0.63334493637084965
asg16
F2
sg17
I10
sg18
I10000
sg19
(F0.63334493637084965
F0.63570117950439453
F0.0023562431335449217
tp164
sbsS'BuiltinFunctionCalls'
p165
(iCalls
BuiltinFunctionCalls
p166
(dp167
g8
I85
sg9
(lp168
F0.0013927459716796876
aF0.0013949036598205566
aF0.0013931512832641602
aF0.0013902068138122558
asg11
I4
sg12
g13
sg14
(lp169
F0.80513073205947872
asg16
F2
sg17
I10
sg18
I6000
sg19
(F0.80513073205947872
F0.80652093887329102
F0.0013902068138122558
tp170
sbsS'UnicodeMappings'
p171
(iUnicode
UnicodeMappings
p172
(dp173
g8
I36
sg9
(lp174
F0.0033614993095397948
aF0.0033422470092773437
aF0.0033443450927734377
aF0.0033466577529907226
asg11
I4
sg12
g13
sg14
(lp175
F0.65210976600646975
asg16
F2
sg17
I10
sg18
I1000
sg19
(F0.65210976600646975
F0.65545201301574707
F0.0033422470092773437
tp176
sbsS'CompareFloats'
p177
(iNumbers
CompareFloats
p178
(dp179
g8
I150
sg9
(lp180
F0.0018587946891784669
aF0.0018550515174865722
aF0.0018561959266662597
aF0.001857149600982666
asg11
I4
sg12
g13
sg14
(lp181
F0.54053577184677126
asg16
F2
sg17
I10
sg18
I8000
sg19
(F0.54053577184677126
F0.54239082336425781
F0.0018550515174865722
tp182
sbsS'StringMappings'
p183
(iStrings
StringMappings
p184
(dp185
g8
I36
sg9
(lp186
F0.002388787269592285
aF0.0023841977119445799
aF0.0023820400238037109
aF0.0023812413215637206
asg11
I4
sg12
g13
sg14
(lp187
F0.57805474996566775
asg16
F2
sg17
I10
sg18
I7000
sg19
(F0.57805474996566775
F0.58043599128723145
F0.0023812413215637206
tp188
sbsS'TryFinally'
p189
(iWith
TryFinally
p190
(dp191
g8
I20
sg9
(lp192
F0.0018757820129394532
aF0.0018747806549072265
aF0.001873779296875
aF0.0018750309944152832
asg11
I4
sg12
g13
sg14
(lp193
F0.64497203826904292
asg16
F2
sg17
I10
sg18
I8000
sg19
(F0.64497203826904292
F0.64684581756591797
F0.001873779296875
tp194
sbsS'Recursion'
p195
(iCalls
Recursion
p196
(dp197
g8
I5
sg9
(lp198
F0.0023449301719665528
aF0.0023434877395629881
aF0.0023434877395629881
aF0.0023470401763916017
asg11
I4
sg12
g13
sg14
(lp199
F0.83001964092254643
asg16
F2
sg17
I10
sg18
I10000
sg19
(F0.83001964092254643
F0.83236312866210938
F0.0023434877395629881
tp200
sbsS'SimpleLongArithmetic'
p201
(iArithmetic
SimpleLongArithmetic
p202
(dp203
g8
I110
sg9
(lp204
F0.0013995409011840821
aF0.001399850845336914
aF0.0013991951942443847
aF0.0013996362686157227
asg11
I4
sg12
g13
sg14
(lp205
F0.53711971044540407
asg16
F2
sg17
I10
sg18
I6000
sg19
(F0.53711971044540407
F0.53851890563964844
F0.0013991951942443847
tp206
sbsS'SimpleDictManipulation'
p207
(iDict
SimpleDictManipulation
p208
(dp209
g8
I120
sg9
(lp210
F0.0023458838462829591
aF0.0023459434509277345
aF0.0023438453674316405
aF0.0023433923721313476
asg11
I4
sg12
g13
sg14
(lp211
F0.66170861721038821
asg16
F2
sg17
I10
sg18
I10000
sg19
(F0.66170861721038821
F0.66405200958251953
F0.0023433923721313476
tp212
sbsS'WithRaiseExcept'
p213
(iWith
WithRaiseExcept
p214
(dp215
g8
I8
sg9
(lp216
F0.0023452401161193847
aF0.0023453474044799806
aF0.0023465991020202638
aF0.0023443460464477538
asg11
I4
sg12
g13
sg14
(lp217
F1.5715835332870483
asg16
F2
sg17
I10
sg18
I10000
sg19
(F1.5715835332870483
F1.5739278793334961
F0.0023443460464477538
tp218
sbsS'UnicodeProperties'
p219
(iUnicode
UnicodeProperties
p220
(dp221
g8
I40
sg9
(lp222
F0.01257854700088501
aF0.012578296661376952
aF0.012583398818969726
aF0.012579739093780518
asg11
I4
sg12
g13
sg14
(lp223
F0.64512176513671871
asg16
F2
sg17
I10
sg18
I10000
sg19
(F0.64512176513671871
F0.6577000617980957
F0.012578296661376952
tp224
sbsS'SimpleIntFloatArithmetic'
p225
(iArithmetic
SimpleIntFloatArithmetic
p226
(dp227
g8
I110
sg9
(lp228
F0.0028131842613220216
aF0.0028123378753662108
aF0.0028127312660217287
aF0.002811729907989502
asg11
I4
sg12
g13
sg14
(lp229
F0.44229310750961304
asg16
F2
sg17
I10
sg18
I12000
sg19
(F0.44229310750961304
F0.44510483741760254
F0.002811729907989502
tp230
sbsS'CreateUnicodeWithConcat'
p231
(iUnicode
CreateUnicodeWithConcat
p232
(dp233
g8
I50
sg9
(lp234
F0.0018573999404907227
aF0.0018576979637145996
aF0.0018563508987426759
aF0.0018561482429504395
asg11
I4
sg12
g13
sg14
(lp235
F0.50954192876815796
asg16
F2
sg17
I10
sg18
I8000
sg19
(F0.50954192876815796
F0.5113980770111084
F0.0018561482429504395
tp236
sbsS'ListSlicing'
p237
(iLists
ListSlicing
p238
(dp239
g8
I175
sg9
(lp240
F0.00038894414901733396
aF0.00038875341415405272
aF0.00038830041885375979
aF0.00038754940032958984
asg11
I4
sg12
g13
sg14
(lp241
F0.42892658710479736
asg16
F2
sg17
I10
sg18
I80
sg19
(F0.42892658710479736
F0.42931413650512695
F0.00038754940032958984
tp242
sbsS'SimpleListComprehensions'
p243
(iLists
SimpleListComprehensions
p244
(dp245
g8
I6
sg9
(lp246
F0.00047113895416259763
aF0.00047090053558349607
aF0.00046985149383544923
aF0.00046964883804321287
asg11
I4
sg12
g13
sg14
(lp247
F0.56353739500045774
asg16
F2
sg17
I10
sg18
I2000
sg19
(F0.56353739500045774
F0.56400704383850098
F0.00046964883804321287
tp248
sbsS'CompareLongs'
p249
(iNumbers
CompareLongs
p250
(dp251
g8
I150
sg9
(lp252
F0.0016237974166870117
aF0.0016219019889831543
aF0.0016225457191467285
aF0.0016225934028625487
asg11
I4
sg12
g13
sg14
(lp253
F0.50542598962783813
asg16
F2
sg17
I10
sg18
I7000
sg19
(F0.50542598962783813
F0.50704789161682129
F0.0016219019889831543
tp254
sbsS'SimpleIntegerArithmetic'
p255
(iArithmetic
SimpleIntegerArithmetic
p256
(dp257
g8
I110
sg9
(lp258
F0.0028126478195190431
aF0.0028116822242736815
aF0.0028144955635070802
aF0.0028115391731262209
asg11
I4
sg12
g13
sg14
(lp259
F0.43945635557174684
asg16
F2
sg17
I10
sg18
I12000
sg19
(F0.43945635557174684
F0.44226789474487305
F0.0028115391731262209
tp260
sbsS'SpecialClassAttribute'
p261
(iLookups
SpecialClassAttribute
p262
(dp263
g8
I120
sg9
(lp264
F0.0023567438125610351
aF0.0023563981056213381
aF0.0023538470268249512
aF0.0023551464080810549
asg11
I4
sg12
g13
sg14
(lp265
F0.79432016611099243
asg16
F2
sg17
I10
sg18
I10000
sg19
(F0.79432016611099243
F0.79667401313781738
F0.0023538470268249512
tp266
sbsS'SecondImport'
p267
(iImports
SecondImport
p268
(dp269
g8
I25
sg9
(lp270
F0.00093064308166503908
aF0.00093075037002563474
aF0.00092854499816894529
aF0.00093349218368530271
asg11
I4
sg12
g13
sg14
(lp271
F0.8416114807128906
asg16
F2
sg17
I10
sg18
I4000
sg19
(F0.8416114807128906
F0.84254002571105957
F0.00092854499816894529
tp272
sbsS'WithFinally'
p273
(iWith
WithFinally
p274
(dp275
g8
I20
sg9
(lp276
F0.0018757820129394532
aF0.0018770813941955567
aF0.0018734335899353027
aF0.0018758893013000489
asg11
I4
sg12
g13
sg14
(lp277
F0.87708669900894165
asg16
F2
sg17
I10
sg18
I8000
sg19
(F0.87708669900894165
F0.87896013259887695
F0.0018734335899353027
tp278
sbsS'TupleSlicing'
p279
(iTuples
TupleSlicing
p280
(dp281
g8
I5250
sg9
(lp282
F0.00025609731674194338
aF0.00025634765625000001
aF0.00025484561920166018
aF0.00025614500045776365
asg11
I4
sg12
g13
sg14
(lp283
F0.53360297679901125
asg16
F2
sg17
I10
sg18
I50
sg19
(F0.53360297679901125
F0.53385782241821289
F0.00025484561920166018
tp284
sbsS'SimpleFloatArithmetic'
p285
(iArithmetic
SimpleFloatArithmetic
p286
(dp287
g8
I110
sg9
(lp288
F0.0028115987777709963
aF0.0028100013732910156
aF0.0028110027313232424
aF0.0028129935264587401
asg11
I4
sg12
g13
sg14
(lp289
F0.58166313171386719
asg16
F2
sg17
I10
sg18
I12000
sg19
(F0.58166313171386719
F0.5844731330871582
F0.0028100013732910156
tp290
sbsS'StringPredicates'
p291
(iStrings
StringPredicates
p292
(dp293
g8
I70
sg9
(lp294
F0.012584733963012695
aF0.012581229209899902
aF0.012582325935363769
aF0.012582433223724366
asg11
I4
sg12
g13
sg14
(lp295
F0.70842278003692627
asg16
F2
sg17
I10
sg18
I10000
sg19
(F0.70842278003692627
F0.72100400924682617
F0.012581229209899902
tp296
sbsS'BuiltinMethodLookup'
p297
(iLookups
BuiltinMethodLookup
p298
(dp299
g8
I150
sg9
(lp300
F0.0016252875328063964
aF0.0016245007514953612
aF0.0016244411468505859
aF0.0016235947608947755
asg11
I4
sg12
g13
sg14
(lp301
F0.64068726301193235
asg16
F2
sg17
I10
sg18
I7000
sg19
(F0.64068726301193235
F0.64231085777282715
F0.0016235947608947755
tp302
sbsS'SimpleComplexArithmetic'
p303
(iArithmetic
SimpleComplexArithmetic
p304
(dp305
g8
I110
sg9
(lp306
F0.0018719911575317382
aF0.0018711924552917481
aF0.0018709421157836914
aF0.0018697500228881836
asg11
I4
sg12
g13
sg14
(lp307
F0.54763429164886479
asg16
F2
sg17
I10
sg18
I8000
sg19
(F0.54763429164886479
F0.54950404167175293
F0.0018697500228881836
tp308
sbsS'ConcatUnicode'
p309
(iUnicode
ConcatUnicode
p310
(dp311
g8
I50
sg9
(lp312
F0.001863086223602295
aF0.0018606901168823243
aF0.0018628835678100586
aF0.0018594264984130859
asg11
I4
sg12
g13
sg14
(lp313
F0.83960843086242676
asg16
F2
sg17
I10
sg18
I6000
sg19
(F0.83960843086242676
F0.84146785736083984
F0.0018594264984130859
tp314
sbsS'CompareInternedStrings'
p315
(iStrings
CompareInternedStrings
p316
(dp317
g8
I50
sg9
(lp318
F0.0070393443107604984
aF0.0070383906364440921
aF0.0070374369621276859
aF0.007034790515899658
asg11
I4
sg12
g13
sg14
(lp319
F0.56285022497177128
asg16
F2
sg17
I10
sg18
I30000
sg19
(F0.56285022497177128
F0.5698850154876709
F0.007034790515899658
tp320
sbsS'CompareStrings'
p321
(iStrings
CompareStrings
p322
(dp323
g8
I50
sg9
(lp324
F0.0047302007675170902
aF0.0047294497489929199
aF0.0047290444374084471
aF0.0047310471534729006
asg11
I4
sg12
g13
sg14
(lp325
F0.49983190298080443
asg16
F2
sg17
I10
sg18
I20000
sg19
(F0.49983190298080443
F0.50456094741821289
F0.0047290444374084471
tp326
sbsS'SmallTuples'
p327
(iTuples
SmallTuples
p328
(dp329
g8
I60
sg9
(lp330
F0.0021050930023193359
aF0.0021078467369079592
aF0.0021064400672912596
aF0.0021057009696960451
asg11
I4
sg12
g13
sg14
(lp331
F0.63256993293762209
asg16
F2
sg17
I10
sg18
I9000
sg19
(F0.63256993293762209
F0.63467502593994141
F0.0021050930023193359
tp332
sbsS'NormalClassAttribute'
p333
(iLookups
NormalClassAttribute
p334
(dp335
g8
I120
sg9
(lp336
F0.0023568868637084961
aF0.0023561000823974611
aF0.0023561000823974611
aF0.0023579955101013183
asg11
I4
sg12
g13
sg14
(lp337
F0.79471487998962398
asg16
F2
sg17
I10
sg18
I10000
sg19
(F0.79471487998962398
F0.79707098007202148
F0.0023561000823974611
tp338
sbsS'CreateInstances'
p339
(iInstances
CreateInstances
p340
(dp341
g8
I14
sg9
(lp342
F0.0018992304801940918
aF0.0018976926803588867
aF0.0018958926200866699
aF0.0018974304199218749
asg11
I4
sg12
g13
sg14
(lp343
F0.91677809953689571
asg16
F2
sg17
I10
sg18
I8000
sg19
(F0.91677809953689571
F0.91867399215698242
F0.0018958926200866699
tp344
sbsS'DictWithStringKeys'
p345
(iDict
DictWithStringKeys
p346
(dp347
g8
I60
sg9
(lp348
F0.0046590447425842287
aF0.004662346839904785
aF0.004655396938323975
aF0.0046576976776123045
asg11
I4
sg12
g13
sg14
(lp349
F0.57320853471755984
asg16
F2
sg17
I10
sg18
I20000
sg19
(F0.57320853471755984
F0.57786393165588379
F0.004655396938323975
tp350
sbsS'DictCreation'
p351
(iDict
DictCreation
p352
(dp353
g8
I50
sg9
(lp354
F0.0018577456474304199
aF0.0018560528755187989
aF0.0018564939498901367
aF0.0018563032150268554
asg11
I4
sg12
g13
sg14
(lp355
F0.48957685232162473
asg16
F2
sg17
I10
sg18
I8000
sg19
(F0.48957685232162473
F0.49143290519714355
F0.0018560528755187989
tp356
sbsS'StringSlicing'
p357
(iStrings
StringSlicing
p358
(dp359
g8
I35
sg9
(lp360
F0.0039818882942199707
aF0.003982341289520264
aF0.0039794445037841797
aF0.00397794246673584
asg11
I4
sg12
g13
sg14
(lp361
F0.51732904911041255
asg16
F2
sg17
I10
sg18
I16000
sg19
(F0.51732904911041255
F0.52130699157714844
F0.00397794246673584
tp362
sbssS'name'
p363
S'37.txt'
p364
sg11
I4
sg17
I10
sS'machine_details'
p365
(dp366
S'platform'
p367
S'Linux-4.1.11-1-ARCH-armv7l-with-glibc2.4'
p368
sS'executable'
p369
S'/usr/bin/python2'
p370
sS'builddate'
p371
S'Sep 17 2015 18:40:31'
p372
sS'unicode'
p373
S'UCS4'
p374
sS'implementation'
p375
S'CPython'
p376
sS'compiler'
p377
S'GCC 5.2.0'
p378
sS'bits'
p379
S'32bit'
p380
sS'processor'
p381
S''
sS'buildno'
p382
S'default'
p383
sS'python'
p384
S'2.7.10'
p385
ssg12
g13
sg16
F2
sS'roundtimes'
p386
(lp387
F38.031921482086183
asg18
I1
sS'verbose'
p388
I0
sb.