(i__main__
Benchmark
p1
(dp2
S'tests'
p3
(dp4
S'SpecialInstanceAttribute'
p5
(iLookups
SpecialInstanceAttribute
p6
(dp7
S'operations'
p8
I120
sS'overhead_times'
p9
(lp10
F0.0017976760864257812
aF0.0018034338951110839
aF0.0017997860908508302
aF0.0018024325370788574
asS'calibration_runs'
p11
I4
sS'timer'
p12
S'time.time'
p13
sS'times'
p14
(lp15
F0.5676882266998291
asS'version'
p16
F2
sS'warp'
p17
I10
sS'rounds'
p18
I10000
sS'last_timing'
p19
(F0.5676882266998291
F0.56948590278625488
F0.0017976760864257812
tp20
sbsS'PythonFunctionCalls'
p21
(iCalls
PythonFunctionCalls
p22
(dp23
g8
I55
sg9
(lp24
F0.0010629773139953613
aF0.001063692569732666
aF0.0010621309280395507
aF0.0010658264160156249
asg11
I4
sg12
g13
sg14
(lp25
F0.50447180271148684
asg16
F2
sg17
I10
sg18
I6000
sg19
(F0.50447180271148684
F0.50553393363952637
F0.0010621309280395507
tp26
sbsS'CompareFloatsIntegers'
p27
(iNumbers
CompareFloatsIntegers
p28
(dp29
g8
I150
sg9
(lp30
F0.0010407328605651855
aF0.001047039031982422
aF0.0010382890701293944
aF0.0010485887527465821
asg11
I4
sg12
g13
sg14
(lp31
F0.52504470348358157
asg16
F2
sg17
I10
sg18
I6000
sg19
(F0.52504470348358157
F0.52608299255371094
F0.0010382890701293944
tp32
sbsS'PythonMethodCalls'
p33
(iCalls
PythonMethodCalls
p34
(dp35
g8
I75
sg9
(lp36
F0.00054874420166015623
aF0.00054914951324462895
aF0.00054274797439575191
aF0.0005465507507324219
asg11
I4
sg12
g13
sg14
(lp37
F0.59140933752059932
asg16
F2
sg17
I10
sg18
I3000
sg19
(F0.59140933752059932
F0.59195208549499512
F0.00054274797439575191
tp38
sbsS'NestedListComprehensions'
p39
(iLists
NestedListComprehensions
p40
(dp41
g8
I6
sg9
(lp42
F0.00035444498062133791
aF0.00035414695739746096
aF0.00035474300384521487
aF0.00035408735275268557
asg11
I4
sg12
g13
sg14
(lp43
F0.53655668497085574
asg16
F2
sg17
I10
sg18
I2000
sg19
(F0.53655668497085574
F0.5369107723236084
F0.00035408735275268557
tp44
sbsS'SecondSubmoduleImport'
p45
(iImports
SecondSubmoduleImport
p46
(dp47
g8
I25
sg9
(lp48
F0.00069634914398193355
aF0.00069764852523803713
aF0.00069304704666137693
aF0.00070364475250244145
asg11
I4
sg12
g13
sg14
(lp49
F0.85378078222274778
asg16
F2
sg17
I10
sg18
I4000
sg19
(F0.85378078222274778
F0.85447382926940918
F0.00069304704666137693
tp50
sbsS'DictWithIntegerKeys'
p51
(iDict
DictWithIntegerKeys
p52
(dp53
g8
I60
sg9
(lp54
F0.0035726904869079592
aF0.0035585880279541014
aF0.0035829424858093263
aF0.0035869359970092775
asg11
I4
sg12
g13
sg14
(lp55
F0.47566537857055663
asg16
F2
sg17
I10
sg18
I20000
sg19
(F0.47566537857055663
F0.47922396659851074
F0.0035585880279541014
tp56
sbsS'UnicodeSlicing'
p57
(iUnicode
UnicodeSlicing
p58
(dp59
g8
I35
sg9
(lp60
F0.002707946300506592
aF0.002705502510070801
aF0.0027235984802246095
aF0.0027141451835632326
asg11
I4
sg12
g13
sg14
(lp61
F0.69913251399993892
asg16
F2
sg17
I10
sg18
I14000
sg19
(F0.69913251399993892
F0.70183801651000977
F0.002705502510070801
tp62
sbsS'NestedForLoops'
p63
(iConstructs
NestedForLoops
p64
(dp65
g8
I50000
sg9
(lp66
F7.0750713348388672e-05
aF7.0798397064208982e-05
aF6.9248676300048825e-05
aF6.9093704223632815e-05
asg11
I4
sg12
g13
sg14
(lp67
F0.45240287780761718
asg16
F2
sg17
I10
sg18
I30
sg19
(F0.45240287780761718
F0.45247197151184082
F6.9093704223632815e-05
tp68
sbsS'UnicodePredicates'
p69
(iUnicode
UnicodePredicates
p70
(dp71
g8
I45
sg9
(lp72
F0.01036444902420044
aF0.010351443290710449
aF0.010351300239562988
aF0.010354888439178467
asg11
I4
sg12
g13
sg14
(lp73
F0.43049252033233643
asg16
F2
sg17
I10
sg18
I12000
sg19
(F0.43049252033233643
F0.44084382057189941
F0.010351300239562988
tp74
sbsS'ForLoops'
p75
(iConstructs
ForLoops
p76
(dp77
g8
I25
sg9
(lp78
F0.00023097991943359374
aF0.00022518634796142578
aF0.00022853612899780272
aF0.00022928714752197267
asg11
I4
sg12
g13
sg14
(lp79
F0.3767777681350708
asg16
F2
sg17
I10
sg18
I1000
sg19
(F0.3767777681350708
F0.37700295448303223
F0.00022518634796142578
tp80
sbsS'ConcatStrings'
p81
(iStrings
ConcatStrings
p82
(dp83
g8
I50
sg9
(lp84
F0.0021732926368713381
aF0.002151346206665039
aF0.0021510362625122071
aF0.0021633982658386232
asg11
I4
sg12
g13
sg14
(lp85
F0.88532898426055906
asg16
F2
sg17
I10
sg18
I10000
sg19
(F0.88532898426055906
F0.88748002052307129
F0.0021510362625122071
tp86
sbsS'SecondPackageImport'
p87
(iImports
SecondPackageImport
p88
(dp89
g8
I25
sg9
(lp90
F0.00069884061813354494
aF0.00069549083709716795
aF0.00069143772125244138
aF0.00069634914398193355
asg11
I4
sg12
g13
sg14
(lp91
F0.68937442302703855
asg16
F2
sg17
I10
sg18
I4000
sg19
(F0.68937442302703855
F0.69006586074829102
F0.00069143772125244138
tp92
sbsS'CompareIntegers'
p93
(iNumbers
CompareIntegers
p94
(dp95
g8
I150
sg9
(lp96
F0.0021217465400695801
aF0.0021330952644348145
aF0.0021041870117187501
aF0.002113640308380127
asg11
I4
sg12
g13
sg14
(lp97
F0.36871180534362791
asg16
F2
sg17
I10
sg18
I12000
sg19
(F0.36871180534362791
F0.37081599235534668
F0.0021041870117187501
tp98
sbsS'CreateStringsWithConcat'
p99
(iStrings
CreateStringsWithConcat
p100
(dp101
g8
I50
sg9
(lp102
F0.0035603880882263184
aF0.0035697817802429199
aF0.0035874366760253905
aF0.0035799860954284666
asg11
I4
sg12
g13
sg14
(lp103
F0.62975946664810178
asg16
F2
sg17
I10
sg18
I20000
sg19
(F0.62975946664810178
F0.63331985473632812
F0.0035603880882263184
tp104
sbsS'SmallLists'
p105
(iLists
SmallLists
p106
(dp107
g8
I85
sg9
(lp108
F0.0014128446578979491
aF0.0014126420021057129
aF0.001397991180419922
aF0.0014090538024902344
asg11
I4
sg12
g13
sg14
(lp109
F0.54062709808349607
asg16
F2
sg17
I10
sg18
I8000
sg19
(F0.54062709808349607
F0.54202508926391602
F0.001397991180419922
tp110
sbsS'CompareUnicode'
p111
(iUnicode
CompareUnicode
p112
(dp113
g8
I50
sg9
(lp114
F0.0027562975883483887
aF0.0027501940727233886
aF0.0027592897415161131
aF0.0027557969093322753
asg11
I4
sg12
g13
sg14
(lp115
F0.42452570199966433
asg16
F2
sg17
I10
sg18
I15000
sg19
(F0.42452570199966433
F0.4272758960723877
F0.0027501940727233886
tp116
sbsS'SimpleListManipulation'
p117
(iLists
SimpleListManipulation
p118
(dp119
g8
I90
sg9
(lp120
F0.0023039460182189943
aF0.0022923946380615234
aF0.0023199439048767088
aF0.002305305004119873
asg11
I4
sg12
g13
sg14
(lp121
F0.37586164474487305
asg16
F2
sg17
I10
sg18
I13000
sg19
(F0.37586164474487305
F0.37815403938293457
F0.0022923946380615234
tp122
sbsS'DictWithFloatKeys'
p123
(iDict
DictWithFloatKeys
p124
(dp125
g8
I60
sg9
(lp126
F0.0026720046997070314
aF0.0026820540428161622
aF0.0026911973953247072
aF0.0026933431625366213
asg11
I4
sg12
g13
sg14
(lp127
F0.53086991310119624
asg16
F2
sg17
I10
sg18
I15000
sg19
(F0.53086991310119624
F0.53354191780090332
F0.0026720046997070314
tp128
sbsS'CreateNewInstances'
p129
(iNewInstances
CreateNewInstances
p130
(dp131
g8
I14
sg9
(lp132
F0.0013522267341613769
aF0.0013545870780944825
aF0.0013645768165588378
aF0.00136033296585083
asg11
I4
sg12
g13
sg14
(lp133
F0.45798667669296267
asg16
F2
sg17
I10
sg18
I6000
sg19
(F0.45798667669296267
F0.45933890342712402
F0.0013522267341613769
tp134
sbsS'TryExcept'
p135
(iExceptions
TryExcept
p136
(dp137
g8
I150
sg9
(lp138
F0.0026600003242492677
aF0.0026548981666564943
aF0.0026522994041442869
aF0.0026416420936584474
asg11
I4
sg12
g13
sg14
(lp139
F0.31911853551864622
asg16
F2
sg17
I10
sg18
I15000
sg19
(F0.31911853551864622
F0.32176017761230469
F0.0026416420936584474
tp140
sbsS'ComplexPythonFunctionCalls'
p141
(iCalls
ComplexPythonFunctionCalls
p142
(dp143
g8
I20
sg9
(lp144
F0.001766204833984375
aF0.0017582535743713378
aF0.0017770051956176758
aF0.0017645001411437989
asg11
I4
sg12
g13
sg14
(lp145
F0.55183871984481814
asg16
F2
sg17
I10
sg18
I10000
sg19
(F0.55183871984481814
F0.55359697341918945
F0.0017582535743713378
tp146
sbsS'TryRaiseExcept'
p147
(iExceptions
TryRaiseExcept
p148
(dp149
g8
I8
sg9
(lp150
F0.0014111042022705079
aF0.0014028429985046386
aF0.0014208912849426269
aF0.0014037489891052246
asg11
I4
sg12
g13
sg14
(lp151
F0.45045114755630494
asg16
F2
sg17
I10
sg18
I8000
sg19
(F0.45045114755630494
F0.45185399055480957
F0.0014028429985046386
tp152
sbsS'IfThenElse'
p153
(iConstructs
IfThenElse
p154
(dp155
g8
I90
sg9
(lp156
F0.0026834368705749511
aF0.0026843309402465819
aF0.0026856780052185057
aF0.0026565790176391602
asg11
I4
sg12
g13
sg14
(lp157
F0.28550946712493896
asg16
F2
sg17
I10
sg18
I15000
sg19
(F0.28550946712493896
F0.28816604614257812
F0.0026565790176391602
tp158
sbsS'NormalInstanceAttribute'
p159
(iLookups
NormalInstanceAttribute
p160
(dp161
g8
I120
sg9
(lp162
F0.0018066048622131347
aF0.0018009543418884277
aF0.0017899513244628907
aF0.0018039941787719727
asg11
I4
sg12
g13
sg14
(lp163
F0.40753993988037107
asg16
F2
sg17
I10
sg18
I10000
sg19
(F0.40753993988037107
F0.40932989120483398
F0.0017899513244628907
tp164
sbsS'BuiltinFunctionCalls'
p165
(iCalls
BuiltinFunctionCalls
p166
(dp167
g8
I85
sg9
(lp168
F0.0010650396347045899
aF0.001048600673675537
aF0.001043999195098877
aF0.0010468482971191407
asg11
I4
sg12
g13
sg14
(lp169
F0.60380414724349973
asg16
F2
sg17
I10
sg18
I6000
sg19
(F0.60380414724349973
F0.60484814643859863
F0.001043999195098877
tp170
sbsS'UnicodeMappings'
p171
(iUnicode
UnicodeMappings
p172
(dp173
g8
I36
sg9
(lp174
F0.002310633659362793
aF0.0023016929626464844
aF0.0022903800010681151
aF0.002292633056640625
asg11
I4
sg12
g13
sg14
(lp175
F0.30622874498367308
asg16
F2
sg17
I10
sg18
I1000
sg19
(F0.30622874498367308
F0.30851912498474121
F0.0022903800010681151
tp176
sbsS'CompareFloats'
p177
(iNumbers
CompareFloats
p178
(dp179
g8
I150
sg9
(lp180
F0.0014003038406372071
aF0.0014053940773010253
aF0.0014023423194885255
aF0.0014093399047851562
asg11
I4
sg12
g13
sg14
(lp181
F0.56005256175994877
asg16
F2
sg17
I10
sg18
I8000
sg19
(F0.56005256175994877
F0.56145286560058594
F0.0014003038406372071
tp182
sbsS'StringMappings'
p183
(iStrings
StringMappings
p184
(dp185
g8
I36
sg9
(lp186
F0.0018077969551086425
aF0.0017935991287231444
aF0.0018033385276794434
aF0.001800239086151123
asg11
I4
sg12
g13
sg14
(lp187
F0.70436432361602785
asg16
F2
sg17
I10
sg18
I7000
sg19
(F0.70436432361602785
F0.70615792274475098
F0.0017935991287231444
tp188
sbsS'TryFinally'
p189
(iWith
TryFinally
p190
(dp191
g8
I20
sg9
(lp192
F0.0014239788055419923
aF0.0014293432235717774
aF0.0014205336570739745
aF0.0014305949211120606
asg11
I4
sg12
g13
sg14
(lp193
F0.48710843324661257
asg16
F2
sg17
I10
sg18
I8000
sg19
(F0.48710843324661257
F0.48852896690368652
F0.0014205336570739745
tp194
sbsS'Recursion'
p195
(iCalls
Recursion
p196
(dp197
g8
I5
sg9
(lp198
F0.0017698526382446289
aF0.0017702937126159667
aF0.0017724990844726562
aF0.0017637014389038086
asg11
I4
sg12
g13
sg14
(lp199
F0.72134745121002197
asg16
F2
sg17
I10
sg18
I10000
sg19
(F0.72134745121002197
F0.72311115264892578
F0.0017637014389038086
tp200
sbsS'SimpleLongArithmetic'
p201
(iArithmetic
SimpleLongArithmetic
p202
(dp203
g8
I110
sg9
(lp204
F0.001057744026184082
aF0.0010485410690307616
aF0.0010555386543273926
aF0.001047039031982422
asg11
I4
sg12
g13
sg14
(lp205
F0.44195208549499509
asg16
F2
sg17
I10
sg18
I6000
sg19
(F0.44195208549499509
F0.44299912452697754
F0.001047039031982422
tp206
sbsS'SimpleDictManipulation'
p207
(iDict
SimpleDictManipulation
p208
(dp209
g8
I120
sg9
(lp210
F0.0017992973327636719
aF0.0017958521842956544
aF0.0018079876899719238
aF0.0017928957939147949
asg11
I4
sg12
g13
sg14
(lp211
F0.51586509943008418
asg16
F2
sg17
I10
sg18
I10000
sg19
(F0.51586509943008418
F0.51765799522399902
F0.0017928957939147949
tp212
sbsS'WithRaiseExcept'
p213
(iWith
WithRaiseExcept
p214
(dp215
g8
I8
sg9
(lp216
F0.0018015503883361816
aF0.0018049478530883789
aF0.0018061518669128418
aF0.0017997980117797851
asg11
I4
sg12
g13
sg14
(lp217
F0.95927717685699465
asg16
F2
sg17
I10
sg18
I10000
sg19
(F0.95927717685699465
F0.96107697486877441
F0.0017997980117797851
tp218
sbsS'UnicodeProperties'
p219
(iUnicode
UnicodeProperties
p220
(dp221
g8
I40
sg9
(lp222
F0.0086476445198059079
aF0.0086256980895996101
aF0.0086462020874023444
aF0.0086430907249450684
asg11
I4
sg12
g13
sg14
(lp223
F0.54378824234008794
asg16
F2
sg17
I10
sg18
I10000
sg19
(F0.54378824234008794
F0.5524139404296875
F0.0086256980895996101
tp224
sbsS'SimpleIntFloatArithmetic'
p225
(iArithmetic
SimpleIntFloatArithmetic
p226
(dp227
g8
I110
sg9
(lp228
F0.0021286964416503905
aF0.0021245360374450685
aF0.0021306872367858887
aF0.0021187901496887208
asg11
I4
sg12
g13
sg14
(lp229
F0.32772306203842161
asg16
F2
sg17
I10
sg18
I12000
sg19
(F0.32772306203842161
F0.32984185218811035
F0.0021187901496887208
tp230
sbsS'CreateUnicodeWithConcat'
p231
(iUnicode
CreateUnicodeWithConcat
p232
(dp233
g8
I50
sg9
(lp234
F0.0013968467712402344
aF0.0014026403427124024
aF0.0014101505279541016
aF0.0013989448547363282
asg11
I4
sg12
g13
sg14
(lp235
F0.50448207855224614
asg16
F2
sg17
I10
sg18
I8000
sg19
(F0.50448207855224614
F0.50587892532348633
F0.0013968467712402344
tp236
sbsS'ListSlicing'
p237
(iLists
ListSlicing
p238
(dp239
g8
I175
sg9
(lp240
F0.00034804344177246093
aF0.00034794807434082033
aF0.00034813880920410157
aF0.00034688711166381837
asg11
I4
sg12
g13
sg14
(lp241
F0.47044707536697389
asg16
F2
sg17
I10
sg18
I80
sg19
(F0.47044707536697389
F0.4707939624786377
F0.00034688711166381837
tp242
sbsS'SimpleListComprehensions'
p243
(iLists
SimpleListComprehensions
p244
(dp245
g8
I6
sg9
(lp246
F0.00035649538040161133
aF0.00035865306854248046
aF0.00035934448242187501
aF0.00035730600357055666
asg11
I4
sg12
g13
sg14
(lp247
F0.46277850866317749
asg16
F2
sg17
I10
sg18
I2000
sg19
(F0.46277850866317749
F0.4631350040435791
F0.00035649538040161133
tp248
sbsS'CompareLongs'
p249
(iNumbers
CompareLongs
p250
(dp251
g8
I150
sg9
(lp252
F0.0012258529663085938
aF0.0012272477149963378
aF0.0012227416038513184
aF0.0012270450592041016
asg11
I4
sg12
g13
sg14
(lp253
F0.34443126916885375
asg16
F2
sg17
I10
sg18
I7000
sg19
(F0.34443126916885375
F0.34565401077270508
F0.0012227416038513184
tp254
sbsS'SimpleIntegerArithmetic'
p255
(iArithmetic
SimpleIntegerArithmetic
p256
(dp257
g8
I110
sg9
(lp258
F0.0021387577056884766
aF0.0021340370178222655
aF0.0021190404891967773
aF0.0021320462226867678
asg11
I4
sg12
g13
sg14
(lp259
F0.32618906497955324
asg16
F2
sg17
I10
sg18
I12000
sg19
(F0.32618906497955324
F0.32830810546875
F0.0021190404891967773
tp260
sbsS'SpecialClassAttribute'
p261
(iLookups
SpecialClassAttribute
p262
(dp263
g8
I120
sg9
(lp264
F0.0017953991889953613
aF0.0017969012260437012
aF0.0017754435539245605
aF0.0017945528030395507
asg11
I4
sg12
g13
sg14
(lp265
F0.52470356225967407
asg16
F2
sg17
I10
sg18
I10000
sg19
(F0.52470356225967407
F0.52647900581359863
F0.0017754435539245605
tp266
sbsS'SecondImport'
p267
(iImports
SecondImport
p268
(dp269
g8
I25
sg9
(lp270
F0.00069628953933715816
aF0.00070013999938964842
aF0.00069563388824462886
aF0.00069708824157714848
asg11
I4
sg12
g13
sg14
(lp271
F0.66737921237945552
asg16
F2
sg17
I10
sg18
I4000
sg19
(F0.66737921237945552
F0.6680748462677002
F0.00069563388824462886
tp272
sbsS'WithFinally'
p273
(iWith
WithFinally
p274
(dp275
g8
I20
sg9
(lp276
F0.0014303565025329591
aF0.0014193534851074218
aF0.0014337539672851563
aF0.001417994499206543
asg11
I4
sg12
g13
sg14
(lp277
F0.64261209964752197
asg16
F2
sg17
I10
sg18
I8000
sg19
(F0.64261209964752197
F0.64403009414672852
F0.001417994499206543
tp278
sbsS'TupleSlicing'
p279
(iTuples
TupleSlicing
p280
(dp281
g8
I5250
sg9
(lp282
F0.00022794008255004882
aF0.00022969245910644531
aF0.00022364854812622069
aF0.00022670030593872071
asg11
I4
sg12
g13
sg14
(lp283
F0.44187043905258178
asg16
F2
sg17
I10
sg18
I50
sg19
(F0.44187043905258178
F0.44209408760070801
F0.00022364854812622069
tp284
sbsS'SimpleFloatArithmetic'
p285
(iArithmetic
SimpleFloatArithmetic
p286
(dp287
g8
I110
sg9
(lp288
F0.0021410822868347169
aF0.0021266818046569826
aF0.0021246910095214845
aF0.0021308302879333497
asg11
I4
sg12
g13
sg14
(lp289
F0.57813129425048826
asg16
F2
sg17
I10
sg18
I12000
sg19
(F0.57813129425048826
F0.58025598526000977
F0.0021246910095214845
tp290
sbsS'StringPredicates'
p291
(iStrings
StringPredicates
p292
(dp293
g8
I70
sg9
(lp294
F0.0085952401161193855
aF0.0085927963256835944
aF0.0085839509963989251
aF0.0085980892181396484
asg11
I4
sg12
g13
sg14
(lp295
F0.56701309680938716
asg16
F2
sg17
I10
sg18
I10000
sg19
(F0.56701309680938716
F0.57559704780578613
F0.0085839509963989251
tp296
sbsS'BuiltinMethodLookup'
p297
(iLookups
BuiltinMethodLookup
p298
(dp299
g8
I150
sg9
(lp300
F0.0012474298477172852
aF0.001251828670501709
aF0.0012411832809448241
aF0.001251983642578125
asg11
I4
sg12
g13
sg14
(lp301
F0.51200678348541262
asg16
F2
sg17
I10
sg18
I7000
sg19
(F0.51200678348541262
F0.51324796676635742
F0.0012411832809448241
tp302
sbsS'SimpleComplexArithmetic'
p303
(iArithmetic
SimpleComplexArithmetic
p304
(dp305
g8
I110
sg9
(lp306
F0.0014076948165893555
aF0.0014067888259887695
aF0.0014079451560974122
aF0.0014037966728210449
asg11
I4
sg12
g13
sg14
(lp307
F0.51381827592849727
asg16
F2
sg17
I10
sg18
I8000
sg19
(F0.51381827592849727
F0.51522207260131836
F0.0014037966728210449
tp308
sbsS'ConcatUnicode'
p309
(iUnicode
ConcatUnicode
p310
(dp311
g8
I50
sg9
(lp312
F0.0014526247978210449
aF0.0014509797096252442
aF0.0014502882957458496
aF0.00144728422164917
asg11
I4
sg12
g13
sg14
(lp313
F0.75707165002822874
asg16
F2
sg17
I10
sg18
I6000
sg19
(F0.75707165002822874
F0.75851893424987793
F0.00144728422164917
tp314
sbsS'CompareInternedStrings'
p315
(iStrings
CompareInternedStrings
p316
(dp317
g8
I50
sg9
(lp318
F0.0055132865905761722
aF0.0053617477416992186
aF0.005442690849304199
aF0.0054720997810363773
asg11
I4
sg12
g13
sg14
(lp319
F0.44820528030395507
asg16
F2
sg17
I10
sg18
I30000
sg19
(F0.44820528030395507
F0.4535670280456543
F0.0053617477416992186
tp320
sbsS'CompareStrings'
p321
(iStrings
CompareStrings
p322
(dp323
g8
I50
sg9
(lp324
F0.0036780953407287596
aF0.0036340951919555664
aF0.0036628484725952149
aF0.0036593437194824218
asg11
I4
sg12
g13
sg14
(lp325
F0.45029270648956299
asg16
F2
sg17
I10
sg18
I20000
sg19
(F0.45029270648956299
F0.45392680168151855
F0.0036340951919555664
tp326
sbsS'SmallTuples'
p327
(iTuples
SmallTuples
p328
(dp329
g8
I60
sg9
(lp330
F0.0015817999839782715
aF0.0015915870666503907
aF0.0015964984893798828
aF0.0015955924987792968
asg11
I4
sg12
g13
sg14
(lp331
F0.49284826517105101
asg16
F2
sg17
I10
sg18
I9000
sg19
(F0.49284826517105101
F0.4944300651550293
F0.0015817999839782715
tp332
sbsS'NormalClassAttribute'
p333
(iLookups
NormalClassAttribute
p334
(dp335
g8
I120
sg9
(lp336
F0.0017954349517822266
aF0.0017850875854492187
aF0.0017999887466430664
aF0.0017883419990539552
asg11
I4
sg12
g13
sg14
(lp337
F0.51787490844726558
asg16
F2
sg17
I10
sg18
I10000
sg19
(F0.51787490844726558
F0.51965999603271484
F0.0017850875854492187
tp338
sbsS'CreateInstances'
p339
(iInstances
CreateInstances
p340
(dp341
g8
I14
sg9
(lp342
F0.0014302968978881837
aF0.0014345526695251464
aF0.0014324426651000977
aF0.0014357924461364745
asg11
I4
sg12
g13
sg14
(lp343
F0.57160279750823972
asg16
F2
sg17
I10
sg18
I8000
sg19
(F0.57160279750823972
F0.57303309440612793
F0.0014302968978881837
tp344
sbsS'DictWithStringKeys'
p345
(iDict
DictWithStringKeys
p346
(dp347
g8
I60
sg9
(lp348
F0.0035807967185974123
aF0.0035995960235595701
aF0.0035951375961303712
aF0.0035953402519226076
asg11
I4
sg12
g13
sg14
(lp349
F0.42752410173416139
asg16
F2
sg17
I10
sg18
I20000
sg19
(F0.42752410173416139
F0.43110489845275879
F0.0035807967185974123
tp350
sbsS'DictCreation'
p351
(iDict
DictCreation
p352
(dp353
g8
I50
sg9
(lp354
F0.0014026999473571778
aF0.0014012455940246582
aF0.0014045953750610352
aF0.0013940930366516113
asg11
I4
sg12
g13
sg14
(lp355
F0.35793274641036987
asg16
F2
sg17
I10
sg18
I8000
sg19
(F0.35793274641036987
F0.35932683944702148
F0.0013940930366516113
tp356
sbsS'StringSlicing'
p357
(iStrings
StringSlicing
p358
(dp359
g8
I35
sg9
(lp360
F0.0030541419982910156
aF0.0030585885047912597
aF0.0030473947525024416
aF0.0030303955078124999
asg11
I4
sg12
g13
sg14
(lp361
F0.39966955184936526
asg16
F2
sg17
I10
sg18
I16000
sg19
(F0.39966955184936526
F0.40269994735717773
F0.0030303955078124999
tp362
sbssS'name'
p363
S'30.txt'
p364
sg11
I4
sg17
I10
sS'machine_details'
p365
(dp366
S'platform'
p367
S'Linux-4.1.7-v7+-armv7l-with-debian-8.0'
p368
sS'executable'
p369
S'/usr/bin/python2'
p370
sS'builddate'
p371
S'Mar  8 2015 00:52:26'
p372
sS'unicode'
p373
S'UCS4'
p374
sS'implementation'
p375
S'CPython'
p376
sS'compiler'
p377
S'GCC 4.9.2'
p378
sS'bits'
p379
S'32bit'
p380
sS'processor'
p381
S''
sS'buildno'
p382
S'default'
p383
sS'python'
p384
S'2.7.9'
p385
ssg12
g13
sg16
F2
sS'roundtimes'
p386
(lp387
F30.081322216987608
asg18
I1
sS'verbose'
p388
I0
sb.