(i__main__
Benchmark
p1
(dp2
S'tests'
p3
(dp4
S'SpecialInstanceAttribute'
p5
(iLookups
SpecialInstanceAttribute
p6
(dp7
S'operations'
p8
I120
sS'overhead_times'
p9
(lp10
F0.0016083002090454101
aF0.0016085982322692871
aF0.0016085982322692871
aF0.00160750150680542
asS'calibration_runs'
p11
I4
sS'timer'
p12
S'time.time'
p13
sS'times'
p14
(lp15
F0.65038243532180784
asS'version'
p16
F2
sS'warp'
p17
I10
sS'rounds'
p18
I10000
sS'last_timing'
p19
(F0.65038243532180784
F0.65198993682861328
F0.00160750150680542
tp20
sbsS'PythonFunctionCalls'
p21
(iCalls
PythonFunctionCalls
p22
(dp23
g8
I55
sg9
(lp24
F0.00096194744110107418
aF0.00096069574356079097
aF0.0009606480598449707
aF0.00096149444580078129
asg11
I4
sg12
g13
sg14
(lp25
F0.50272530317306519
asg16
F2
sg17
I10
sg18
I6000
sg19
(F0.50272530317306519
F0.50368595123291016
F0.0009606480598449707
tp26
sbsS'CompareFloatsIntegers'
p27
(iNumbers
CompareFloatsIntegers
p28
(dp29
g8
I150
sg9
(lp30
F0.00095759630203247066
aF0.00095634460449218746
aF0.00095674991607666018
aF0.00096129179000854488
asg11
I4
sg12
g13
sg14
(lp31
F0.54541654586791988
asg16
F2
sg17
I10
sg18
I6000
sg19
(F0.54541654586791988
F0.54637289047241211
F0.00095634460449218746
tp32
sbsS'PythonMethodCalls'
p33
(iCalls
PythonMethodCalls
p34
(dp35
g8
I75
sg9
(lp36
F0.0004931449890136719
aF0.00049324035644531254
aF0.00049204826354980473
aF0.00049189329147338869
asg11
I4
sg12
g13
sg14
(lp37
F0.5662600636482239
asg16
F2
sg17
I10
sg18
I3000
sg19
(F0.5662600636482239
F0.56675195693969727
F0.00049189329147338869
tp38
sbsS'NestedListComprehensions'
p39
(iLists
NestedListComprehensions
p40
(dp41
g8
I6
sg9
(lp42
F0.00032259225845336913
aF0.00032063722610473631
aF0.00032064914703369143
aF0.00032238960266113282
asg11
I4
sg12
g13
sg14
(lp43
F0.56346825361251829
asg16
F2
sg17
I10
sg18
I2000
sg19
(F0.56346825361251829
F0.56378889083862305
F0.00032063722610473631
tp44
sbsS'SecondSubmoduleImport'
p45
(iImports
SecondSubmoduleImport
p46
(dp47
g8
I25
sg9
(lp48
F0.00063499212265014646
aF0.00063574314117431641
aF0.00063560009002685549
aF0.00063474178314208989
asg11
I4
sg12
g13
sg14
(lp49
F0.70810430049896245
asg16
F2
sg17
I10
sg18
I4000
sg19
(F0.70810430049896245
F0.70873904228210449
F0.00063474178314208989
tp50
sbsS'DictWithIntegerKeys'
p51
(iDict
DictWithIntegerKeys
p52
(dp53
g8
I60
sg9
(lp54
F0.0032042860984802246
aF0.003196132183074951
aF0.0031976819038391112
aF0.0032008886337280273
asg11
I4
sg12
g13
sg14
(lp55
F0.51437984704971318
asg16
F2
sg17
I10
sg18
I20000
sg19
(F0.51437984704971318
F0.51757597923278809
F0.003196132183074951
tp56
sbsS'UnicodeSlicing'
p57
(iUnicode
UnicodeSlicing
p58
(dp59
g8
I35
sg9
(lp60
F0.0024253964424133302
aF0.0024433970451354981
aF0.0024167418479919432
aF0.0024353981018066405
asg11
I4
sg12
g13
sg14
(lp61
F0.61261521577835087
asg16
F2
sg17
I10
sg18
I14000
sg19
(F0.61261521577835087
F0.61503195762634277
F0.0024167418479919432
tp62
sbsS'NestedForLoops'
p63
(iConstructs
NestedForLoops
p64
(dp65
g8
I50000
sg9
(lp66
F7.0953369140625005e-05
aF7.2097778320312495e-05
aF7.1954727172851565e-05
aF7.0500373840332029e-05
asg11
I4
sg12
g13
sg14
(lp67
F0.46230561733245851
asg16
F2
sg17
I10
sg18
I30
sg19
(F0.46230561733245851
F0.46237611770629883
F7.0500373840332029e-05
tp68
sbsS'UnicodePredicates'
p69
(iUnicode
UnicodePredicates
p70
(dp71
g8
I45
sg9
(lp72
F0.010695934295654297
aF0.010699176788330078
aF0.010698282718658447
aF0.01070033311843872
asg11
I4
sg12
g13
sg14
(lp73
F0.43049716949462891
asg16
F2
sg17
I10
sg18
I12000
sg19
(F0.43049716949462891
F0.4411931037902832
F0.010695934295654297
tp74
sbsS'ForLoops'
p75
(iConstructs
ForLoops
p76
(dp77
g8
I25
sg9
(lp78
F0.00022199153900146485
aF0.00021768808364868163
aF0.00022093057632446289
aF0.00021862983703613281
asg11
I4
sg12
g13
sg14
(lp79
F0.36442636251449584
asg16
F2
sg17
I10
sg18
I1000
sg19
(F0.36442636251449584
F0.36464405059814453
F0.00021768808364868163
tp80
sbsS'ConcatStrings'
p81
(iStrings
ConcatStrings
p82
(dp83
g8
I50
sg9
(lp84
F0.0019311547279357911
aF0.0019315958023071289
aF0.0019302487373352051
aF0.0019311547279357911
asg11
I4
sg12
g13
sg14
(lp85
F1.0013196349143982
asg16
F2
sg17
I10
sg18
I10000
sg19
(F1.0013196349143982
F1.0032498836517334
F0.0019302487373352051
tp86
sbsS'SecondPackageImport'
p87
(iImports
SecondPackageImport
p88
(dp89
g8
I25
sg9
(lp90
F0.00063689947128295896
aF0.00063660144805908201
aF0.00063574314117431641
aF0.00063740015029907222
asg11
I4
sg12
g13
sg14
(lp91
F0.58754122257232666
asg16
F2
sg17
I10
sg18
I4000
sg19
(F0.58754122257232666
F0.58817696571350098
F0.00063574314117431641
tp92
sbsS'CompareIntegers'
p93
(iNumbers
CompareIntegers
p94
(dp95
g8
I150
sg9
(lp96
F0.0019167423248291015
aF0.0019191980361938476
aF0.0019154071807861329
aF0.0019153475761413575
asg11
I4
sg12
g13
sg14
(lp97
F0.44056259393692015
asg16
F2
sg17
I10
sg18
I12000
sg19
(F0.44056259393692015
F0.44247794151306152
F0.0019153475761413575
tp98
sbsS'CreateStringsWithConcat'
p99
(iStrings
CreateStringsWithConcat
p100
(dp101
g8
I50
sg9
(lp102
F0.0031955957412719725
aF0.003198087215423584
aF0.0031991839408874513
aF0.0031945824623107908
asg11
I4
sg12
g13
sg14
(lp103
F0.57390331029891972
asg16
F2
sg17
I10
sg18
I20000
sg19
(F0.57390331029891972
F0.57709789276123047
F0.0031945824623107908
tp104
sbsS'SmallLists'
p105
(iLists
SmallLists
p106
(dp107
g8
I85
sg9
(lp108
F0.0012768030166625977
aF0.0012763977050781251
aF0.0012755513191223145
aF0.0012765407562255859
asg11
I4
sg12
g13
sg14
(lp109
F0.50484346151351933
asg16
F2
sg17
I10
sg18
I8000
sg19
(F0.50484346151351933
F0.5061190128326416
F0.0012755513191223145
tp110
sbsS'CompareUnicode'
p111
(iUnicode
CompareUnicode
p112
(dp113
g8
I50
sg9
(lp114
F0.002452850341796875
aF0.0024513959884643554
aF0.0024500966072082521
aF0.0024563550949096681
asg11
I4
sg12
g13
sg14
(lp115
F0.43181694746017457
asg16
F2
sg17
I10
sg18
I15000
sg19
(F0.43181694746017457
F0.43426704406738281
F0.0024500966072082521
tp116
sbsS'SimpleListManipulation'
p117
(iLists
SimpleListManipulation
p118
(dp119
g8
I90
sg9
(lp120
F0.0020774483680725099
aF0.0020764470100402832
aF0.0020844578742980958
aF0.002079939842224121
asg11
I4
sg12
g13
sg14
(lp121
F0.38496178388595581
asg16
F2
sg17
I10
sg18
I13000
sg19
(F0.38496178388595581
F0.38703823089599609
F0.0020764470100402832
tp122
sbsS'DictWithFloatKeys'
p123
(iDict
DictWithFloatKeys
p124
(dp125
g8
I60
sg9
(lp126
F0.0023962020874023437
aF0.0023957967758178713
aF0.0023973464965820314
aF0.0023964405059814452
asg11
I4
sg12
g13
sg14
(lp127
F0.56907422542572017
asg16
F2
sg17
I10
sg18
I15000
sg19
(F0.56907422542572017
F0.57147002220153809
F0.0023957967758178713
tp128
sbsS'CreateNewInstances'
p129
(iNewInstances
CreateNewInstances
p130
(dp131
g8
I14
sg9
(lp132
F0.0012782812118530273
aF0.0012584328651428223
aF0.0012646794319152832
aF0.0012757301330566407
asg11
I4
sg12
g13
sg14
(lp133
F0.44824761152267456
asg16
F2
sg17
I10
sg18
I6000
sg19
(F0.44824761152267456
F0.44950604438781738
F0.0012584328651428223
tp134
sbsS'TryExcept'
p135
(iExceptions
TryExcept
p136
(dp137
g8
I150
sg9
(lp138
F0.0023961067199707031
aF0.0024023532867431642
aF0.0023979544639587402
aF0.0023988008499145506
asg11
I4
sg12
g13
sg14
(lp139
F0.38244485855102539
asg16
F2
sg17
I10
sg18
I15000
sg19
(F0.38244485855102539
F0.38484096527099609
F0.0023961067199707031
tp140
sbsS'ComplexPythonFunctionCalls'
p141
(iCalls
ComplexPythonFunctionCalls
p142
(dp143
g8
I20
sg9
(lp144
F0.0016039490699768066
aF0.0016008853912353516
aF0.0016014933586120605
aF0.0016014933586120605
asg11
I4
sg12
g13
sg14
(lp145
F0.55682716369628904
asg16
F2
sg17
I10
sg18
I10000
sg19
(F0.55682716369628904
F0.55842804908752441
F0.0016008853912353516
tp146
sbsS'TryRaiseExcept'
p147
(iExceptions
TryRaiseExcept
p148
(dp149
g8
I8
sg9
(lp150
F0.0012842297554016113
aF0.0012763381004333497
aF0.0012769818305969239
aF0.0012780427932739258
asg11
I4
sg12
g13
sg14
(lp151
F0.42002383470535276
asg16
F2
sg17
I10
sg18
I8000
sg19
(F0.42002383470535276
F0.42130017280578613
F0.0012763381004333497
tp152
sbsS'IfThenElse'
p153
(iConstructs
IfThenElse
p154
(dp155
g8
I90
sg9
(lp156
F0.0023959994316101072
aF0.0023955941200256349
aF0.0023959517478942872
aF0.0023956060409545898
asg11
I4
sg12
g13
sg14
(lp157
F0.32827237844467161
asg16
F2
sg17
I10
sg18
I15000
sg19
(F0.32827237844467161
F0.33066797256469727
F0.0023955941200256349
tp158
sbsS'NormalInstanceAttribute'
p159
(iLookups
NormalInstanceAttribute
p160
(dp161
g8
I120
sg9
(lp162
F0.0016105413436889649
aF0.0016077399253845216
aF0.0016078472137451172
aF0.0016121506690979005
asg11
I4
sg12
g13
sg14
(lp163
F0.4221202492713928
asg16
F2
sg17
I10
sg18
I10000
sg19
(F0.4221202492713928
F0.42372798919677734
F0.0016077399253845216
tp164
sbsS'BuiltinFunctionCalls'
p165
(iCalls
BuiltinFunctionCalls
p166
(dp167
g8
I85
sg9
(lp168
F0.00097384452819824227
aF0.00096158981323242183
aF0.00095779895782470707
aF0.00095759630203247066
asg11
I4
sg12
g13
sg14
(lp169
F0.56689442396163936
asg16
F2
sg17
I10
sg18
I6000
sg19
(F0.56689442396163936
F0.56785202026367188
F0.00095759630203247066
tp170
sbsS'UnicodeMappings'
p171
(iUnicode
UnicodeMappings
p172
(dp173
g8
I36
sg9
(lp174
F0.0020698904991149902
aF0.0020540952682495117
aF0.0020519971847534181
aF0.0020509481430053709
asg11
I4
sg12
g13
sg14
(lp175
F0.3214930772781372
asg16
F2
sg17
I10
sg18
I1000
sg19
(F0.3214930772781372
F0.32354402542114258
F0.0020509481430053709
tp176
sbsS'CompareFloats'
p177
(iNumbers
CompareFloats
p178
(dp179
g8
I150
sg9
(lp180
F0.0012770533561706544
aF0.001279151439666748
aF0.0012807965278625489
aF0.0012761950492858887
asg11
I4
sg12
g13
sg14
(lp181
F0.57243281602859497
asg16
F2
sg17
I10
sg18
I8000
sg19
(F0.57243281602859497
F0.57370901107788086
F0.0012761950492858887
tp182
sbsS'StringMappings'
p183
(iStrings
StringMappings
p184
(dp185
g8
I36
sg9
(lp186
F0.0016185998916625976
aF0.001612246036529541
aF0.001629638671875
aF0.0016159057617187501
asg11
I4
sg12
g13
sg14
(lp187
F0.57605761289596558
asg16
F2
sg17
I10
sg18
I7000
sg19
(F0.57605761289596558
F0.57766985893249512
F0.001612246036529541
tp188
sbsS'TryFinally'
p189
(iWith
TryFinally
p190
(dp191
g8
I20
sg9
(lp192
F0.0012789487838745118
aF0.0012778878211975099
aF0.0012786984443664551
aF0.001279151439666748
asg11
I4
sg12
g13
sg14
(lp193
F0.50977805852890012
asg16
F2
sg17
I10
sg18
I8000
sg19
(F0.50977805852890012
F0.51105594635009766
F0.0012778878211975099
tp194
sbsS'Recursion'
p195
(iCalls
Recursion
p196
(dp197
g8
I5
sg9
(lp198
F0.0015978455543518067
aF0.0015993952751159669
aF0.0016026020050048829
aF0.0015983939170837401
asg11
I4
sg12
g13
sg14
(lp199
F0.7245872378349304
asg16
F2
sg17
I10
sg18
I10000
sg19
(F0.7245872378349304
F0.72618508338928223
F0.0015978455543518067
tp200
sbsS'SimpleLongArithmetic'
p201
(iArithmetic
SimpleLongArithmetic
p202
(dp203
g8
I110
sg9
(lp204
F0.00095672607421875004
aF0.00095642805099487309
aF0.00095633268356323244
aF0.00095628499984741207
asg11
I4
sg12
g13
sg14
(lp205
F0.4028365731239319
asg16
F2
sg17
I10
sg18
I6000
sg19
(F0.4028365731239319
F0.4037928581237793
F0.00095628499984741207
tp206
sbsS'SimpleDictManipulation'
p207
(iDict
SimpleDictManipulation
p208
(dp209
g8
I120
sg9
(lp210
F0.0016018986701965333
aF0.0015970945358276367
aF0.0015970945358276367
aF0.0015969991683959961
asg11
I4
sg12
g13
sg14
(lp211
F0.53987901210784917
asg16
F2
sg17
I10
sg18
I10000
sg19
(F0.53987901210784917
F0.54147601127624512
F0.0015969991683959961
tp212
sbsS'WithRaiseExcept'
p213
(iWith
WithRaiseExcept
p214
(dp215
g8
I8
sg9
(lp216
F0.001600193977355957
aF0.0015988469123840332
aF0.0015987396240234376
aF0.001598656177520752
asg11
I4
sg12
g13
sg14
(lp217
F0.86836236715316772
asg16
F2
sg17
I10
sg18
I10000
sg19
(F0.86836236715316772
F0.86996102333068848
F0.001598656177520752
tp218
sbsS'UnicodeProperties'
p219
(iUnicode
UnicodeProperties
p220
(dp221
g8
I40
sg9
(lp222
F0.0089121460914611816
aF0.0089038491249084466
aF0.0089098930358886726
aF0.0089125514030456536
asg11
I4
sg12
g13
sg14
(lp223
F0.52038921117782588
asg16
F2
sg17
I10
sg18
I10000
sg19
(F0.52038921117782588
F0.52929306030273438
F0.0089038491249084466
tp224
sbsS'SimpleIntFloatArithmetic'
p225
(iArithmetic
SimpleIntFloatArithmetic
p226
(dp227
g8
I110
sg9
(lp228
F0.0019156932830810547
aF0.0019162416458129883
aF0.0019186973571777345
aF0.0019153475761413575
asg11
I4
sg12
g13
sg14
(lp229
F0.35375748872756957
asg16
F2
sg17
I10
sg18
I12000
sg19
(F0.35375748872756957
F0.35567283630371094
F0.0019153475761413575
tp230
sbsS'CreateUnicodeWithConcat'
p231
(iUnicode
CreateUnicodeWithConcat
p232
(dp233
g8
I50
sg9
(lp234
F0.0012776374816894532
aF0.0012839913368225097
aF0.0012756943702697753
aF0.0012755513191223145
asg11
I4
sg12
g13
sg14
(lp235
F0.45383046865463256
asg16
F2
sg17
I10
sg18
I8000
sg19
(F0.45383046865463256
F0.45510601997375488
F0.0012755513191223145
tp236
sbsS'ListSlicing'
p237
(iLists
ListSlicing
p238
(dp239
g8
I175
sg9
(lp240
F0.00035563707351684572
aF0.00035274028778076172
aF0.00035353899002075193
aF0.00035343170166015627
asg11
I4
sg12
g13
sg14
(lp241
F0.46832931041717529
asg16
F2
sg17
I10
sg18
I80
sg19
(F0.46832931041717529
F0.46868205070495605
F0.00035274028778076172
tp242
sbsS'SimpleListComprehensions'
p243
(iLists
SimpleListComprehensions
p244
(dp245
g8
I6
sg9
(lp246
F0.00032560825347900392
aF0.00032420158386230468
aF0.00032423734664916993
aF0.0003251075744628906
asg11
I4
sg12
g13
sg14
(lp247
F0.49172072410583495
asg16
F2
sg17
I10
sg18
I2000
sg19
(F0.49172072410583495
F0.49204492568969727
F0.00032420158386230468
tp248
sbsS'CompareLongs'
p249
(iNumbers
CompareLongs
p250
(dp251
g8
I150
sg9
(lp252
F0.0011185884475708007
aF0.00111619234085083
aF0.0011240839958190918
aF0.001116633415222168
asg11
I4
sg12
g13
sg14
(lp253
F0.38441785573959353
asg16
F2
sg17
I10
sg18
I7000
sg19
(F0.38441785573959353
F0.38553404808044434
F0.00111619234085083
tp254
sbsS'SimpleIntegerArithmetic'
p255
(iArithmetic
SimpleIntegerArithmetic
p256
(dp257
g8
I110
sg9
(lp258
F0.0019167304039001466
aF0.0019256353378295898
aF0.0019173860549926759
aF0.0019178390502929688
asg11
I4
sg12
g13
sg14
(lp259
F0.35425726175308225
asg16
F2
sg17
I10
sg18
I12000
sg19
(F0.35425726175308225
F0.35617399215698242
F0.0019167304039001466
tp260
sbsS'SpecialClassAttribute'
p261
(iLookups
SpecialClassAttribute
p262
(dp263
g8
I120
sg9
(lp264
F0.0016084432601928711
aF0.0016052961349487306
aF0.0016050457954406739
aF0.001612544059753418
asg11
I4
sg12
g13
sg14
(lp265
F0.51032398939132695
asg16
F2
sg17
I10
sg18
I10000
sg19
(F0.51032398939132695
F0.51192903518676758
F0.0016050457954406739
tp266
sbsS'SecondImport'
p267
(iImports
SecondImport
p268
(dp269
g8
I25
sg9
(lp270
F0.00063805580139160152
aF0.00063589811325073244
aF0.00063885450363159184
aF0.00063604116439819336
asg11
I4
sg12
g13
sg14
(lp271
F0.56791421175003054
asg16
F2
sg17
I10
sg18
I4000
sg19
(F0.56791421175003054
F0.56855010986328125
F0.00063589811325073244
tp272
sbsS'WithFinally'
p273
(iWith
WithFinally
p274
(dp275
g8
I20
sg9
(lp276
F0.0012795448303222657
aF0.001279902458190918
aF0.0012789011001586915
aF0.0012792468070983887
asg11
I4
sg12
g13
sg14
(lp277
F0.62818691730499265
asg16
F2
sg17
I10
sg18
I8000
sg19
(F0.62818691730499265
F0.62946581840515137
F0.0012789011001586915
tp278
sbsS'TupleSlicing'
p279
(iTuples
TupleSlicing
p280
(dp281
g8
I5250
sg9
(lp282
F0.00023169517517089843
aF0.00022958517074584962
aF0.00022939443588256835
aF0.00022964477539062501
asg11
I4
sg12
g13
sg14
(lp283
F0.44466062784194949
asg16
F2
sg17
I10
sg18
I50
sg19
(F0.44466062784194949
F0.44489002227783203
F0.00022939443588256835
tp284
sbsS'SimpleFloatArithmetic'
p285
(iArithmetic
SimpleFloatArithmetic
p286
(dp287
g8
I110
sg9
(lp288
F0.0019176363945007323
aF0.0019176363945007323
aF0.0019160866737365722
aF0.0019172310829162597
asg11
I4
sg12
g13
sg14
(lp289
F0.60323199033737185
asg16
F2
sg17
I10
sg18
I12000
sg19
(F0.60323199033737185
F0.6051480770111084
F0.0019160866737365722
tp290
sbsS'StringPredicates'
p291
(iStrings
StringPredicates
p292
(dp293
g8
I70
sg9
(lp294
F0.0089142918586730957
aF0.0089041948318481449
aF0.0089121937751770013
aF0.0089109897613525394
asg11
I4
sg12
g13
sg14
(lp295
F0.53793790340423586
asg16
F2
sg17
I10
sg18
I10000
sg19
(F0.53793790340423586
F0.54684209823608398
F0.0089041948318481449
tp296
sbsS'BuiltinMethodLookup'
p297
(iLookups
BuiltinMethodLookup
p298
(dp299
g8
I150
sg9
(lp300
F0.0011187434196472169
aF0.0011186957359313964
aF0.001118004322052002
aF0.0011168956756591798
asg11
I4
sg12
g13
sg14
(lp301
F0.47982606887817381
asg16
F2
sg17
I10
sg18
I7000
sg19
(F0.47982606887817381
F0.48094296455383301
F0.0011168956756591798
tp302
sbsS'SimpleComplexArithmetic'
p303
(iArithmetic
SimpleComplexArithmetic
p304
(dp305
g8
I110
sg9
(lp306
F0.0012766361236572266
aF0.0012764930725097656
aF0.0012767434120178223
aF0.0012778401374816894
asg11
I4
sg12
g13
sg14
(lp307
F0.49086570739746094
asg16
F2
sg17
I10
sg18
I8000
sg19
(F0.49086570739746094
F0.4921422004699707
F0.0012764930725097656
tp308
sbsS'ConcatUnicode'
p309
(iUnicode
ConcatUnicode
p310
(dp311
g8
I50
sg9
(lp312
F0.0013122320175170898
aF0.0013356804847717285
aF0.0013178944587707519
aF0.001313328742980957
asg11
I4
sg12
g13
sg14
(lp313
F0.80507495403289797
asg16
F2
sg17
I10
sg18
I6000
sg19
(F0.80507495403289797
F0.80638718605041504
F0.0013122320175170898
tp314
sbsS'CompareInternedStrings'
p315
(iStrings
CompareInternedStrings
p316
(dp317
g8
I50
sg9
(lp318
F0.0048273921012878416
aF0.0048349380493164064
aF0.0048330426216125488
aF0.004825389385223389
asg11
I4
sg12
g13
sg14
(lp319
F0.50158568620681765
asg16
F2
sg17
I10
sg18
I30000
sg19
(F0.50158568620681765
F0.50641107559204102
F0.004825389385223389
tp320
sbsS'CompareStrings'
p321
(iStrings
CompareStrings
p322
(dp323
g8
I50
sg9
(lp324
F0.0032528400421142577
aF0.0032443284988403322
aF0.0032466888427734376
aF0.0032459378242492678
asg11
I4
sg12
g13
sg14
(lp325
F0.4471977472305298
asg16
F2
sg17
I10
sg18
I20000
sg19
(F0.4471977472305298
F0.45044207572937012
F0.0032443284988403322
tp326
sbsS'SmallTuples'
p327
(iTuples
SmallTuples
p328
(dp329
g8
I60
sg9
(lp330
F0.0014383792877197266
aF0.0014365315437316895
aF0.0014368414878845215
aF0.0014371275901794434
asg11
I4
sg12
g13
sg14
(lp331
F0.47497838735580444
asg16
F2
sg17
I10
sg18
I9000
sg19
(F0.47497838735580444
F0.47641491889953613
F0.0014365315437316895
tp332
sbsS'NormalClassAttribute'
p333
(iLookups
NormalClassAttribute
p334
(dp335
g8
I120
sg9
(lp336
F0.0016060471534729004
aF0.0016042470932006836
aF0.0016068458557128907
aF0.0016042947769165038
asg11
I4
sg12
g13
sg14
(lp337
F0.5184036016464233
asg16
F2
sg17
I10
sg18
I10000
sg19
(F0.5184036016464233
F0.52000784873962402
F0.0016042470932006836
tp338
sbsS'CreateInstances'
p339
(iInstances
CreateInstances
p340
(dp341
g8
I14
sg9
(lp342
F0.0013054490089416503
aF0.001301252841949463
aF0.001301741600036621
aF0.0013026952743530273
asg11
I4
sg12
g13
sg14
(lp343
F0.5510497450828552
asg16
F2
sg17
I10
sg18
I8000
sg19
(F0.5510497450828552
F0.55235099792480469
F0.001301252841949463
tp344
sbsS'DictWithStringKeys'
p345
(iDict
DictWithStringKeys
p346
(dp347
g8
I60
sg9
(lp348
F0.0031971931457519531
aF0.0031971454620361326
aF0.0031951427459716796
aF0.0031978011131286619
asg11
I4
sg12
g13
sg14
(lp349
F0.44936790466308596
asg16
F2
sg17
I10
sg18
I20000
sg19
(F0.44936790466308596
F0.45256304740905762
F0.0031951427459716796
tp350
sbsS'DictCreation'
p351
(iDict
DictCreation
p352
(dp353
g8
I50
sg9
(lp354
F0.0012791872024536133
aF0.0012775897979736329
aF0.0012795925140380859
aF0.0012762308120727538
asg11
I4
sg12
g13
sg14
(lp355
F0.3669996500015259
asg16
F2
sg17
I10
sg18
I8000
sg19
(F0.3669996500015259
F0.36827588081359863
F0.0012762308120727538
tp356
sbsS'StringSlicing'
p357
(iStrings
StringSlicing
p358
(dp359
g8
I35
sg9
(lp360
F0.0027315974235534667
aF0.0027247428894042968
aF0.0027269482612609862
aF0.00272829532623291
asg11
I4
sg12
g13
sg14
(lp361
F0.40371122360229494
asg16
F2
sg17
I10
sg18
I16000
sg19
(F0.40371122360229494
F0.40643596649169922
F0.0027247428894042968
tp362
sbssS'name'
p363
S'7.txt'
p364
sg11
I4
sg17
I10
sS'machine_details'
p365
(dp366
S'platform'
p367
S'Linux-3.18.0-25-rpi2-armv7l-with-Ubuntu-15.04-vivid'
p368
sS'executable'
p369
S'/usr/bin/python2'
p370
sS'builddate'
p371
S'Apr  2 2015 16:04:32'
p372
sS'unicode'
p373
S'UCS4'
p374
sS'implementation'
p375
S'CPython'
p376
sS'compiler'
p377
S'GCC 4.9.2'
p378
sS'bits'
p379
S'32bit'
p380
sS'processor'
p381
S'armv7l'
p382
sS'buildno'
p383
S'default'
p384
sS'python'
p385
S'2.7.9'
p386
ssg12
g13
sg16
F2
sS'roundtimes'
p387
(lp388
F29.862880206108098
asg18
I1
sS'verbose'
p389
I0
sb.