(i__main__
Benchmark
p1
(dp2
S'tests'
p3
(dp4
S'SpecialInstanceAttribute'
p5
(iLookups
SpecialInstanceAttribute
p6
(dp7
S'operations'
p8
I120
sS'overhead_times'
p9
(lp10
F0.0017739415168762207
aF0.0017701387405395508
aF0.0017807960510253906
aF0.001768946647644043
asS'calibration_runs'
p11
I4
sS'timer'
p12
S'time.time'
p13
sS'times'
p14
(lp15
F0.55265724658966064
asS'version'
p16
F2
sS'warp'
p17
I10
sS'rounds'
p18
I10000
sS'last_timing'
p19
(F0.55265724658966064
F0.55442619323730469
F0.001768946647644043
tp20
sbsS'PythonFunctionCalls'
p21
(iCalls
PythonFunctionCalls
p22
(dp23
g8
I55
sg9
(lp24
F0.0010489940643310547
aF0.0010501384735107423
aF0.001048600673675537
aF0.0010504961013793946
asg11
I4
sg12
g13
sg14
(lp25
F0.50415321588516238
asg16
F2
sg17
I10
sg18
I6000
sg19
(F0.50415321588516238
F0.50520181655883789
F0.001048600673675537
tp26
sbsS'CompareFloatsIntegers'
p27
(iNumbers
CompareFloatsIntegers
p28
(dp29
g8
I150
sg9
(lp30
F0.0010523438453674317
aF0.0010478973388671875
aF0.0010488510131835937
aF0.001044297218322754
asg11
I4
sg12
g13
sg14
(lp31
F0.52568075656890867
asg16
F2
sg17
I10
sg18
I6000
sg19
(F0.52568075656890867
F0.52672505378723145
F0.001044297218322754
tp32
sbsS'PythonMethodCalls'
p33
(iCalls
PythonMethodCalls
p34
(dp35
g8
I75
sg9
(lp36
F0.00053504705429077151
aF0.0005360960960388184
aF0.00053764581680297856
aF0.00053830146789550786
asg11
I4
sg12
g13
sg14
(lp37
F0.57671090364456179
asg16
F2
sg17
I10
sg18
I3000
sg19
(F0.57671090364456179
F0.57724595069885254
F0.00053504705429077151
tp38
sbsS'NestedListComprehensions'
p39
(iLists
NestedListComprehensions
p40
(dp41
g8
I6
sg9
(lp42
F0.00035344362258911134
aF0.00035169124603271482
aF0.00035318136215209959
aF0.00035313367843627932
asg11
I4
sg12
g13
sg14
(lp43
F0.53203628063201902
asg16
F2
sg17
I10
sg18
I2000
sg19
(F0.53203628063201902
F0.53238797187805176
F0.00035169124603271482
tp44
sbsS'SecondSubmoduleImport'
p45
(iImports
SecondSubmoduleImport
p46
(dp47
g8
I25
sg9
(lp48
F0.00069248676300048828
aF0.00069459676742553709
aF0.00069404840469360356
aF0.00069968700408935543
asg11
I4
sg12
g13
sg14
(lp49
F0.91637647151947021
asg16
F2
sg17
I10
sg18
I4000
sg19
(F0.91637647151947021
F0.9170689582824707
F0.00069248676300048828
tp50
sbsS'DictWithIntegerKeys'
p51
(iDict
DictWithIntegerKeys
p52
(dp53
g8
I60
sg9
(lp54
F0.0035551309585571287
aF0.0035452842712402344
aF0.0035402774810791016
aF0.0035479307174682618
asg11
I4
sg12
g13
sg14
(lp55
F0.47228574752807617
asg16
F2
sg17
I10
sg18
I20000
sg19
(F0.47228574752807617
F0.47582602500915527
F0.0035402774810791016
tp56
sbsS'UnicodeSlicing'
p57
(iUnicode
UnicodeSlicing
p58
(dp59
g8
I35
sg9
(lp60
F0.0026865959167480468
aF0.0026901960372924805
aF0.0026844978332519532
aF0.0026837944984436034
asg11
I4
sg12
g13
sg14
(lp61
F0.6201611399650574
asg16
F2
sg17
I10
sg18
I14000
sg19
(F0.6201611399650574
F0.62284493446350098
F0.0026837944984436034
tp62
sbsS'NestedForLoops'
p63
(iConstructs
NestedForLoops
p64
(dp65
g8
I50000
sg9
(lp66
F7.2038173675537104e-05
aF7.1334838867187497e-05
aF6.9940090179443365e-05
aF7.0083141326904294e-05
asg11
I4
sg12
g13
sg14
(lp67
F0.45024005174636839
asg16
F2
sg17
I10
sg18
I30
sg19
(F0.45024005174636839
F0.45030999183654785
F6.9940090179443365e-05
tp68
sbsS'UnicodePredicates'
p69
(iUnicode
UnicodePredicates
p70
(dp71
g8
I45
sg9
(lp72
F0.010375130176544189
aF0.010361135005950928
aF0.010363590717315675
aF0.010377740859985352
asg11
I4
sg12
g13
sg14
(lp73
F0.42764192819595337
asg16
F2
sg17
I10
sg18
I12000
sg19
(F0.42764192819595337
F0.4380030632019043
F0.010361135005950928
tp74
sbsS'ForLoops'
p75
(iConstructs
ForLoops
p76
(dp77
g8
I25
sg9
(lp78
F0.00023064613342285156
aF0.00022487640380859376
aF0.00022658109664916993
aF0.00022488832473754883
asg11
I4
sg12
g13
sg14
(lp79
F0.38038105964660646
asg16
F2
sg17
I10
sg18
I1000
sg19
(F0.38038105964660646
F0.38060593605041504
F0.00022487640380859376
tp80
sbsS'ConcatStrings'
p81
(iStrings
ConcatStrings
p82
(dp83
g8
I50
sg9
(lp84
F0.0021815538406372071
aF0.002164745330810547
aF0.0021738529205322264
aF0.002177751064300537
asg11
I4
sg12
g13
sg14
(lp85
F0.88875827789306638
asg16
F2
sg17
I10
sg18
I10000
sg19
(F0.88875827789306638
F0.89092302322387695
F0.002164745330810547
tp86
sbsS'SecondPackageImport'
p87
(iImports
SecondPackageImport
p88
(dp89
g8
I25
sg9
(lp90
F0.00069904327392578125
aF0.00069674253463745115
aF0.00069684982299804692
aF0.00069534778594970703
asg11
I4
sg12
g13
sg14
(lp91
F0.7294546365737915
asg16
F2
sg17
I10
sg18
I4000
sg19
(F0.7294546365737915
F0.73014998435974121
F0.00069534778594970703
tp92
sbsS'CompareIntegers'
p93
(iNumbers
CompareIntegers
p94
(dp95
g8
I150
sg9
(lp96
F0.0021147489547729491
aF0.0021232008934020997
aF0.0021103978157043456
aF0.002110755443572998
asg11
I4
sg12
g13
sg14
(lp97
F0.36767061948776247
asg16
F2
sg17
I10
sg18
I12000
sg19
(F0.36767061948776247
F0.3697810173034668
F0.0021103978157043456
tp98
sbsS'CreateStringsWithConcat'
p99
(iStrings
CreateStringsWithConcat
p100
(dp101
g8
I50
sg9
(lp102
F0.0035662889480590821
aF0.003540527820587158
aF0.0035832405090332033
aF0.003578042984008789
asg11
I4
sg12
g13
sg14
(lp103
F0.62810753583908085
asg16
F2
sg17
I10
sg18
I20000
sg19
(F0.62810753583908085
F0.63164806365966797
F0.003540527820587158
tp104
sbsS'SmallLists'
p105
(iLists
SmallLists
p106
(dp107
g8
I85
sg9
(lp108
F0.0014021277427673339
aF0.0014034867286682128
aF0.0014016270637512208
aF0.001400136947631836
asg11
I4
sg12
g13
sg14
(lp109
F0.52278194427490232
asg16
F2
sg17
I10
sg18
I8000
sg19
(F0.52278194427490232
F0.52418208122253418
F0.001400136947631836
tp110
sbsS'CompareUnicode'
p111
(iUnicode
CompareUnicode
p112
(dp113
g8
I50
sg9
(lp114
F0.0027551531791687013
aF0.0029161453247070314
aF0.0027642965316772459
aF0.0027866959571838379
asg11
I4
sg12
g13
sg14
(lp115
F0.40803886651992799
asg16
F2
sg17
I10
sg18
I15000
sg19
(F0.40803886651992799
F0.41079401969909668
F0.0027551531791687013
tp116
sbsS'SimpleListManipulation'
p117
(iLists
SimpleListManipulation
p118
(dp119
g8
I90
sg9
(lp120
F0.0022603750228881838
aF0.0022616863250732424
aF0.0022606849670410156
aF0.002261829376220703
asg11
I4
sg12
g13
sg14
(lp121
F0.37411863803863527
asg16
F2
sg17
I10
sg18
I13000
sg19
(F0.37411863803863527
F0.37637901306152344
F0.0022603750228881838
tp122
sbsS'DictWithFloatKeys'
p123
(iDict
DictWithFloatKeys
p124
(dp125
g8
I60
sg9
(lp126
F0.0026549935340881349
aF0.0026683449745178224
aF0.0026425004005432131
aF0.0027096986770629881
asg11
I4
sg12
g13
sg14
(lp127
F0.56579841375350948
asg16
F2
sg17
I10
sg18
I15000
sg19
(F0.56579841375350948
F0.56844091415405273
F0.0026425004005432131
tp128
sbsS'CreateNewInstances'
p129
(iNewInstances
CreateNewInstances
p130
(dp131
g8
I14
sg9
(lp132
F0.0013677477836608887
aF0.001352846622467041
aF0.0013689041137695313
aF0.0013753890991210938
asg11
I4
sg12
g13
sg14
(lp133
F0.44868415594100952
asg16
F2
sg17
I10
sg18
I6000
sg19
(F0.44868415594100952
F0.45003700256347656
F0.001352846622467041
tp134
sbsS'TryExcept'
p135
(iExceptions
TryExcept
p136
(dp137
g8
I150
sg9
(lp138
F0.0026320815086364746
aF0.0026346325874328615
aF0.0026437878608703614
aF0.0026334404945373537
asg11
I4
sg12
g13
sg14
(lp139
F0.31829386949539185
asg16
F2
sg17
I10
sg18
I15000
sg19
(F0.31829386949539185
F0.32092595100402832
F0.0026320815086364746
tp140
sbsS'ComplexPythonFunctionCalls'
p141
(iCalls
ComplexPythonFunctionCalls
p142
(dp143
g8
I20
sg9
(lp144
F0.0017681956291198731
aF0.0017707943916320801
aF0.0017840027809143066
aF0.0017658948898315429
asg11
I4
sg12
g13
sg14
(lp145
F0.55553014278411861
asg16
F2
sg17
I10
sg18
I10000
sg19
(F0.55553014278411861
F0.5572960376739502
F0.0017658948898315429
tp146
sbsS'TryRaiseExcept'
p147
(iExceptions
TryRaiseExcept
p148
(dp149
g8
I8
sg9
(lp150
F0.0014060497283935546
aF0.0014011025428771972
aF0.0014004945755004884
aF0.0014042019844055175
asg11
I4
sg12
g13
sg14
(lp151
F0.44935653209686277
asg16
F2
sg17
I10
sg18
I8000
sg19
(F0.44935653209686277
F0.45075702667236328
F0.0014004945755004884
tp152
sbsS'IfThenElse'
p153
(iConstructs
IfThenElse
p154
(dp155
g8
I90
sg9
(lp156
F0.0026367902755737305
aF0.0026373505592346192
aF0.0026385903358459471
aF0.0026422023773193361
asg11
I4
sg12
g13
sg14
(lp157
F0.28476417064666748
asg16
F2
sg17
I10
sg18
I15000
sg19
(F0.28476417064666748
F0.28740096092224121
F0.0026367902755737305
tp158
sbsS'NormalInstanceAttribute'
p159
(iLookups
NormalInstanceAttribute
p160
(dp161
g8
I120
sg9
(lp162
F0.0017697453498840333
aF0.0017721056938171387
aF0.0017699003219604492
aF0.0017699003219604492
asg11
I4
sg12
g13
sg14
(lp163
F0.40445522069931028
asg16
F2
sg17
I10
sg18
I10000
sg19
(F0.40445522069931028
F0.40622496604919434
F0.0017697453498840333
tp164
sbsS'BuiltinFunctionCalls'
p165
(iCalls
BuiltinFunctionCalls
p166
(dp167
g8
I85
sg9
(lp168
F0.0010534524917602539
aF0.0010457992553710937
aF0.0010522842407226563
aF0.0010477900505065918
asg11
I4
sg12
g13
sg14
(lp169
F0.60304131507873537
asg16
F2
sg17
I10
sg18
I6000
sg19
(F0.60304131507873537
F0.60408711433410645
F0.0010457992553710937
tp170
sbsS'UnicodeMappings'
p171
(iUnicode
UnicodeMappings
p172
(dp173
g8
I36
sg9
(lp174
F0.0023052453994750976
aF0.0022896885871887206
aF0.0022806882858276366
aF0.0022830963134765625
asg11
I4
sg12
g13
sg14
(lp175
F0.30499722957611086
asg16
F2
sg17
I10
sg18
I1000
sg19
(F0.30499722957611086
F0.30727791786193848
F0.0022806882858276366
tp176
sbsS'CompareFloats'
p177
(iNumbers
CompareFloats
p178
(dp179
g8
I150
sg9
(lp180
F0.0014049053192138673
aF0.0013973474502563476
aF0.0014117002487182618
aF0.0013972043991088868
asg11
I4
sg12
g13
sg14
(lp181
F0.55324571132659917
asg16
F2
sg17
I10
sg18
I8000
sg19
(F0.55324571132659917
F0.55464291572570801
F0.0013972043991088868
tp182
sbsS'StringMappings'
p183
(iStrings
StringMappings
p184
(dp185
g8
I36
sg9
(lp186
F0.0017948389053344727
aF0.0017905950546264649
aF0.0017845392227172851
aF0.0017911434173583985
asg11
I4
sg12
g13
sg14
(lp187
F0.70138862133026125
asg16
F2
sg17
I10
sg18
I7000
sg19
(F0.70138862133026125
F0.70317316055297852
F0.0017845392227172851
tp188
sbsS'TryFinally'
p189
(iWith
TryFinally
p190
(dp191
g8
I20
sg9
(lp192
F0.0014108061790466309
aF0.0014109373092651366
aF0.0014084458351135253
aF0.001405346393585205
asg11
I4
sg12
g13
sg14
(lp193
F0.4853497862815857
asg16
F2
sg17
I10
sg18
I8000
sg19
(F0.4853497862815857
F0.4867551326751709
F0.001405346393585205
tp194
sbsS'Recursion'
p195
(iCalls
Recursion
p196
(dp197
g8
I5
sg9
(lp198
F0.0017380952835083009
aF0.0017346024513244628
aF0.0017337918281555176
aF0.0017377376556396485
asg11
I4
sg12
g13
sg14
(lp199
F0.71888421773910527
asg16
F2
sg17
I10
sg18
I10000
sg19
(F0.71888421773910527
F0.72061800956726074
F0.0017337918281555176
tp200
sbsS'SimpleLongArithmetic'
p201
(iArithmetic
SimpleLongArithmetic
p202
(dp203
g8
I110
sg9
(lp204
F0.0010474920272827148
aF0.0010453462600708008
aF0.0010500907897949218
aF0.0010484457015991211
asg11
I4
sg12
g13
sg14
(lp205
F0.42026865482330322
asg16
F2
sg17
I10
sg18
I6000
sg19
(F0.42026865482330322
F0.42131400108337402
F0.0010453462600708008
tp206
sbsS'SimpleDictManipulation'
p207
(iDict
SimpleDictManipulation
p208
(dp209
g8
I120
sg9
(lp210
F0.0017727971076965331
aF0.0017758965492248534
aF0.0017765522003173827
aF0.001774442195892334
asg11
I4
sg12
g13
sg14
(lp211
F0.51316317319869997
asg16
F2
sg17
I10
sg18
I10000
sg19
(F0.51316317319869997
F0.51493597030639648
F0.0017727971076965331
tp212
sbsS'WithRaiseExcept'
p213
(iWith
WithRaiseExcept
p214
(dp215
g8
I8
sg9
(lp216
F0.0017722010612487792
aF0.0017736077308654786
aF0.0017691373825073243
aF0.0017679452896118164
asg11
I4
sg12
g13
sg14
(lp217
F0.97582595348358159
asg16
F2
sg17
I10
sg18
I10000
sg19
(F0.97582595348358159
F0.97759389877319336
F0.0017679452896118164
tp218
sbsS'UnicodeProperties'
p219
(iUnicode
UnicodeProperties
p220
(dp221
g8
I40
sg9
(lp222
F0.0086293458938598629
aF0.0086364388465881344
aF0.0086461424827575691
aF0.0086341500282287598
asg11
I4
sg12
g13
sg14
(lp223
F0.5337724447250366
asg16
F2
sg17
I10
sg18
I10000
sg19
(F0.5337724447250366
F0.54240179061889648
F0.0086293458938598629
tp224
sbsS'SimpleIntFloatArithmetic'
p225
(iArithmetic
SimpleIntFloatArithmetic
p226
(dp227
g8
I110
sg9
(lp228
F0.0021081447601318361
aF0.0021083474159240721
aF0.0021078467369079592
aF0.0021065473556518555
asg11
I4
sg12
g13
sg14
(lp229
F0.32698547840118408
asg16
F2
sg17
I10
sg18
I12000
sg19
(F0.32698547840118408
F0.32909202575683594
F0.0021065473556518555
tp230
sbsS'CreateUnicodeWithConcat'
p231
(iUnicode
CreateUnicodeWithConcat
p232
(dp233
g8
I50
sg9
(lp234
F0.0014171957969665526
aF0.0014002442359924317
aF0.0014027953147888184
aF0.0013948440551757812
asg11
I4
sg12
g13
sg14
(lp235
F0.4823323726654053
asg16
F2
sg17
I10
sg18
I8000
sg19
(F0.4823323726654053
F0.48372721672058105
F0.0013948440551757812
tp236
sbsS'ListSlicing'
p237
(iLists
ListSlicing
p238
(dp239
g8
I175
sg9
(lp240
F0.00034884214401245119
aF0.00034849643707275392
aF0.00034829378128051756
aF0.0003473043441772461
asg11
I4
sg12
g13
sg14
(lp241
F0.46588189601898194
asg16
F2
sg17
I10
sg18
I80
sg19
(F0.46588189601898194
F0.46622920036315918
F0.0003473043441772461
tp242
sbsS'SimpleListComprehensions'
p243
(iLists
SimpleListComprehensions
p244
(dp245
g8
I6
sg9
(lp246
F0.00035828351974487305
aF0.00035543441772460936
aF0.00035662651062011718
aF0.00035994052886962892
asg11
I4
sg12
g13
sg14
(lp247
F0.45731263160705565
asg16
F2
sg17
I10
sg18
I2000
sg19
(F0.45731263160705565
F0.45766806602478027
F0.00035543441772460936
tp248
sbsS'CompareLongs'
p249
(iNumbers
CompareLongs
p250
(dp251
g8
I150
sg9
(lp252
F0.0012242913246154786
aF0.0012240409851074219
aF0.0012261509895324708
aF0.0012202978134155274
asg11
I4
sg12
g13
sg14
(lp253
F0.34331576824188231
asg16
F2
sg17
I10
sg18
I7000
sg19
(F0.34331576824188231
F0.34453606605529785
F0.0012202978134155274
tp254
sbsS'SimpleIntegerArithmetic'
p255
(iArithmetic
SimpleIntegerArithmetic
p256
(dp257
g8
I110
sg9
(lp258
F0.0021042943000793455
aF0.0021064400672912596
aF0.0021098017692565917
aF0.0021048903465270994
asg11
I4
sg12
g13
sg14
(lp259
F0.32535265684127807
asg16
F2
sg17
I10
sg18
I12000
sg19
(F0.32535265684127807
F0.32745695114135742
F0.0021042943000793455
tp260
sbsS'SpecialClassAttribute'
p261
(iLookups
SpecialClassAttribute
p262
(dp263
g8
I120
sg9
(lp264
F0.0017654895782470703
aF0.0017627000808715821
aF0.0017637491226196289
aF0.0017632007598876952
asg11
I4
sg12
g13
sg14
(lp265
F0.5228103876113892
asg16
F2
sg17
I10
sg18
I10000
sg19
(F0.5228103876113892
F0.52457308769226074
F0.0017627000808715821
tp266
sbsS'SecondImport'
p267
(iImports
SecondImport
p268
(dp269
g8
I25
sg9
(lp270
F0.00069143772125244138
aF0.00069633722305297854
aF0.00069538354873657229
aF0.00069522857666015625
asg11
I4
sg12
g13
sg14
(lp271
F0.69529364109039304
asg16
F2
sg17
I10
sg18
I4000
sg19
(F0.69529364109039304
F0.69598507881164551
F0.00069143772125244138
tp272
sbsS'WithFinally'
p273
(iWith
WithFinally
p274
(dp275
g8
I20
sg9
(lp276
F0.0014083385467529297
aF0.0014082908630371094
aF0.0014119386672973634
aF0.0014060974121093751
asg11
I4
sg12
g13
sg14
(lp277
F0.63476977348327634
asg16
F2
sg17
I10
sg18
I8000
sg19
(F0.63476977348327634
F0.63617587089538574
F0.0014060974121093751
tp278
sbsS'TupleSlicing'
p279
(iTuples
TupleSlicing
p280
(dp281
g8
I5250
sg9
(lp282
F0.00022565126419067384
aF0.00022554397583007812
aF0.00022379159927368164
aF0.00022379159927368164
asg11
I4
sg12
g13
sg14
(lp283
F0.44502314329147341
asg16
F2
sg17
I10
sg18
I50
sg19
(F0.44502314329147341
F0.44524693489074707
F0.00022379159927368164
tp284
sbsS'SimpleFloatArithmetic'
p285
(iArithmetic
SimpleFloatArithmetic
p286
(dp287
g8
I110
sg9
(lp288
F0.002103555202484131
aF0.0021068453788757324
aF0.002106153964996338
aF0.00211104154586792
asg11
I4
sg12
g13
sg14
(lp289
F0.57577039003372188
asg16
F2
sg17
I10
sg18
I12000
sg19
(F0.57577039003372188
F0.57787394523620605
F0.002103555202484131
tp290
sbsS'StringPredicates'
p291
(iStrings
StringPredicates
p292
(dp293
g8
I70
sg9
(lp294
F0.008599591255187989
aF0.0085970044136047356
aF0.0085956454277038574
aF0.0085977435111999519
asg11
I4
sg12
g13
sg14
(lp295
F0.55765730142593384
asg16
F2
sg17
I10
sg18
I10000
sg19
(F0.55765730142593384
F0.5662529468536377
F0.0085956454277038574
tp296
sbsS'BuiltinMethodLookup'
p297
(iLookups
BuiltinMethodLookup
p298
(dp299
g8
I150
sg9
(lp300
F0.0012452840805053712
aF0.0012447357177734375
aF0.0012543797492980957
aF0.0012411355972290039
asg11
I4
sg12
g13
sg14
(lp301
F0.50630171298980708
asg16
F2
sg17
I10
sg18
I7000
sg19
(F0.50630171298980708
F0.50754284858703613
F0.0012411355972290039
tp302
sbsS'SimpleComplexArithmetic'
p303
(iArithmetic
SimpleComplexArithmetic
p304
(dp305
g8
I110
sg9
(lp306
F0.0013958930969238282
aF0.0014019489288330078
aF0.0014010548591613769
aF0.0014028429985046386
asg11
I4
sg12
g13
sg14
(lp307
F0.48278408050537108
asg16
F2
sg17
I10
sg18
I8000
sg19
(F0.48278408050537108
F0.48417997360229492
F0.0013958930969238282
tp308
sbsS'ConcatUnicode'
p309
(iUnicode
ConcatUnicode
p310
(dp311
g8
I50
sg9
(lp312
F0.0014559507369995117
aF0.0014602422714233398
aF0.0014619469642639161
aF0.0014531493186950683
asg11
I4
sg12
g13
sg14
(lp313
F0.72753978967666622
asg16
F2
sg17
I10
sg18
I6000
sg19
(F0.72753978967666622
F0.72899293899536133
F0.0014531493186950683
tp314
sbsS'CompareInternedStrings'
p315
(iStrings
CompareInternedStrings
p316
(dp317
g8
I50
sg9
(lp318
F0.0054902791976928714
aF0.005420780181884766
aF0.0054375290870666507
aF0.005460786819458008
asg11
I4
sg12
g13
sg14
(lp319
F0.44369235038757326
asg16
F2
sg17
I10
sg18
I30000
sg19
(F0.44369235038757326
F0.44911313056945801
F0.005420780181884766
tp320
sbsS'CompareStrings'
p321
(iStrings
CompareStrings
p322
(dp323
g8
I50
sg9
(lp324
F0.0036836862564086914
aF0.0036787867546081545
aF0.0036683320999145509
aF0.0037046790122985838
asg11
I4
sg12
g13
sg14
(lp325
F0.44816372394561765
asg16
F2
sg17
I10
sg18
I20000
sg19
(F0.44816372394561765
F0.45183205604553223
F0.0036683320999145509
tp326
sbsS'SmallTuples'
p327
(iTuples
SmallTuples
p328
(dp329
g8
I60
sg9
(lp330
F0.0015738487243652343
aF0.0015775442123413086
aF0.0015772461891174316
aF0.0015796422958374023
asg11
I4
sg12
g13
sg14
(lp331
F0.49193711280822755
asg16
F2
sg17
I10
sg18
I9000
sg19
(F0.49193711280822755
F0.49351096153259277
F0.0015738487243652343
tp332
sbsS'NormalClassAttribute'
p333
(iLookups
NormalClassAttribute
p334
(dp335
g8
I120
sg9
(lp336
F0.0017694473266601563
aF0.0017617464065551758
aF0.0017613530158996581
aF0.0017707943916320801
asg11
I4
sg12
g13
sg14
(lp337
F0.51521047353744509
asg16
F2
sg17
I10
sg18
I10000
sg19
(F0.51521047353744509
F0.51697182655334473
F0.0017613530158996581
tp338
sbsS'CreateInstances'
p339
(iInstances
CreateInstances
p340
(dp341
g8
I14
sg9
(lp342
F0.0014348983764648437
aF0.0014336466789245605
aF0.001429140567779541
aF0.0014320969581604003
asg11
I4
sg12
g13
sg14
(lp343
F0.57964080572128296
asg16
F2
sg17
I10
sg18
I8000
sg19
(F0.57964080572128296
F0.5810699462890625
F0.001429140567779541
tp344
sbsS'DictWithStringKeys'
p345
(iDict
DictWithStringKeys
p346
(dp347
g8
I60
sg9
(lp348
F0.0035441040992736815
aF0.003546738624572754
aF0.0035450935363769533
aF0.0035435438156127931
asg11
I4
sg12
g13
sg14
(lp349
F0.42578060626983644
asg16
F2
sg17
I10
sg18
I20000
sg19
(F0.42578060626983644
F0.42932415008544922
F0.0035435438156127931
tp350
sbsS'DictCreation'
p351
(iDict
DictCreation
p352
(dp353
g8
I50
sg9
(lp354
F0.0014109373092651366
aF0.0014024496078491211
aF0.0014115571975708008
aF0.0014023900032043457
asg11
I4
sg12
g13
sg14
(lp355
F0.35400675535202025
asg16
F2
sg17
I10
sg18
I8000
sg19
(F0.35400675535202025
F0.35540914535522461
F0.0014023900032043457
tp356
sbsS'StringSlicing'
p357
(iStrings
StringSlicing
p358
(dp359
g8
I35
sg9
(lp360
F0.0029985308647155762
aF0.0029915928840637206
aF0.003012681007385254
aF0.0030485391616821289
asg11
I4
sg12
g13
sg14
(lp361
F0.39666255712509157
asg16
F2
sg17
I10
sg18
I16000
sg19
(F0.39666255712509157
F0.39965415000915527
F0.0029915928840637206
tp362
sbssS'name'
p363
S'21.txt'
p364
sg11
I4
sg17
I10
sS'machine_details'
p365
(dp366
S'platform'
p367
S'Linux-4.1.7-v7+-armv7l-with-debian-8.0'
p368
sS'executable'
p369
S'/usr/bin/python2'
p370
sS'builddate'
p371
S'Mar  8 2015 00:52:26'
p372
sS'unicode'
p373
S'UCS4'
p374
sS'implementation'
p375
S'CPython'
p376
sS'compiler'
p377
S'GCC 4.9.2'
p378
sS'bits'
p379
S'32bit'
p380
sS'processor'
p381
S''
sS'buildno'
p382
S'default'
p383
sS'python'
p384
S'2.7.9'
p385
ssg12
g13
sg16
F2
sS'roundtimes'
p386
(lp387
F29.91830034255981
asg18
I1
sS'verbose'
p388
I0
sb.