(i__main__
Benchmark
p1
(dp2
S'tests'
p3
(dp4
S'SpecialInstanceAttribute'
p5
(iLookups
SpecialInstanceAttribute
p6
(dp7
S'operations'
p8
I120
sS'overhead_times'
p9
(lp10
F0.0016348958015441895
aF0.0016221046447753907
aF0.001624596118927002
aF0.0016207456588745116
asS'calibration_runs'
p11
I4
sS'timer'
p12
S'time.time'
p13
sS'times'
p14
(lp15
F0.65056731700897219
asS'version'
p16
F2
sS'warp'
p17
I10
sS'rounds'
p18
I10000
sS'last_timing'
p19
(F0.65056731700897219
F0.65218806266784668
F0.0016207456588745116
tp20
sbsS'PythonFunctionCalls'
p21
(iCalls
PythonFunctionCalls
p22
(dp23
g8
I55
sg9
(lp24
F0.00096764564514160154
aF0.00096639394760131834
aF0.00096644163131713872
aF0.00096719264984130855
asg11
I4
sg12
g13
sg14
(lp25
F0.50529948472976682
asg16
F2
sg17
I10
sg18
I6000
sg19
(F0.50529948472976682
F0.50626587867736816
F0.00096639394760131834
tp26
sbsS'CompareFloatsIntegers'
p27
(iNumbers
CompareFloatsIntegers
p28
(dp29
g8
I150
sg9
(lp30
F0.0010425448417663574
aF0.0010567903518676758
aF0.0010418415069580079
aF0.001046597957611084
asg11
I4
sg12
g13
sg14
(lp31
F0.55018215179443364
asg16
F2
sg17
I10
sg18
I6000
sg19
(F0.55018215179443364
F0.5512239933013916
F0.0010418415069580079
tp32
sbsS'PythonMethodCalls'
p33
(iCalls
PythonMethodCalls
p34
(dp35
g8
I75
sg9
(lp36
F0.00049799680709838867
aF0.00049788951873779301
aF0.00049489736557006836
aF0.00049804449081420894
asg11
I4
sg12
g13
sg14
(lp37
F0.57798105478286743
asg16
F2
sg17
I10
sg18
I3000
sg19
(F0.57798105478286743
F0.5784759521484375
F0.00049489736557006836
tp38
sbsS'NestedListComprehensions'
p39
(iLists
NestedListComprehensions
p40
(dp41
g8
I6
sg9
(lp42
F0.00032240152359008789
aF0.00032563209533691405
aF0.00032329559326171875
aF0.00032184123992919924
asg11
I4
sg12
g13
sg14
(lp43
F0.57747318744659426
asg16
F2
sg17
I10
sg18
I2000
sg19
(F0.57747318744659426
F0.57779502868652344
F0.00032184123992919924
tp44
sbsS'SecondSubmoduleImport'
p45
(iImports
SecondSubmoduleImport
p46
(dp47
g8
I25
sg9
(lp48
F0.00064209699630737307
aF0.00063949823379516602
aF0.00064070224761962895
aF0.00063998699188232426
asg11
I4
sg12
g13
sg14
(lp49
F0.72070044279098511
asg16
F2
sg17
I10
sg18
I4000
sg19
(F0.72070044279098511
F0.72133994102478027
F0.00063949823379516602
tp50
sbsS'DictWithIntegerKeys'
p51
(iDict
DictWithIntegerKeys
p52
(dp53
g8
I60
sg9
(lp54
F0.0034872412681579588
aF0.0034882426261901855
aF0.0034883379936218261
aF0.003488147258758545
asg11
I4
sg12
g13
sg14
(lp55
F0.51747690439224248
asg16
F2
sg17
I10
sg18
I20000
sg19
(F0.51747690439224248
F0.52096414566040039
F0.0034872412681579588
tp56
sbsS'UnicodeSlicing'
p57
(iUnicode
UnicodeSlicing
p58
(dp59
g8
I35
sg9
(lp60
F0.0024747371673583983
aF0.0024556994438171388
aF0.0024723410606384277
aF0.0024603962898254394
asg11
I4
sg12
g13
sg14
(lp61
F0.6262643456459045
asg16
F2
sg17
I10
sg18
I14000
sg19
(F0.6262643456459045
F0.62872004508972168
F0.0024556994438171388
tp62
sbsS'NestedForLoops'
p63
(iConstructs
NestedForLoops
p64
(dp65
g8
I50000
sg9
(lp66
F7.3695182800292974e-05
aF7.0393085479736328e-05
aF7.0297718048095709e-05
aF7.1752071380615232e-05
asg11
I4
sg12
g13
sg14
(lp67
F0.4675987124443054
asg16
F2
sg17
I10
sg18
I30
sg19
(F0.4675987124443054
F0.46766901016235352
F7.0297718048095709e-05
tp68
sbsS'UnicodePredicates'
p69
(iUnicode
UnicodePredicates
p70
(dp71
g8
I45
sg9
(lp72
F0.011095499992370606
aF0.011105155944824219
aF0.011109542846679688
aF0.011117792129516602
asg11
I4
sg12
g13
sg14
(lp73
F0.43125846385955813
asg16
F2
sg17
I10
sg18
I12000
sg19
(F0.43125846385955813
F0.44235396385192871
F0.011095499992370606
tp74
sbsS'ForLoops'
p75
(iConstructs
ForLoops
p76
(dp77
g8
I25
sg9
(lp78
F0.00022189617156982423
aF0.00021814107894897462
aF0.00022598505020141602
aF0.00022920370101928711
asg11
I4
sg12
g13
sg14
(lp79
F0.36672378778457643
asg16
F2
sg17
I10
sg18
I1000
sg19
(F0.36672378778457643
F0.36694192886352539
F0.00021814107894897462
tp80
sbsS'ConcatStrings'
p81
(iStrings
ConcatStrings
p82
(dp83
g8
I50
sg9
(lp84
F0.0020899534225463866
aF0.0020925998687744141
aF0.0020851969718933107
aF0.0020843982696533204
asg11
I4
sg12
g13
sg14
(lp85
F1.0275217056274415
asg16
F2
sg17
I10
sg18
I10000
sg19
(F1.0275217056274415
F1.0296061038970947
F0.0020843982696533204
tp86
sbsS'SecondPackageImport'
p87
(iImports
SecondPackageImport
p88
(dp89
g8
I25
sg9
(lp90
F0.00064197778701782229
aF0.00064183473587036137
aF0.00063958168029785154
aF0.00064078569412231447
asg11
I4
sg12
g13
sg14
(lp91
F0.60410127639770506
asg16
F2
sg17
I10
sg18
I4000
sg19
(F0.60410127639770506
F0.60474085807800293
F0.00063958168029785154
tp92
sbsS'CompareIntegers'
p93
(iNumbers
CompareIntegers
p94
(dp95
g8
I150
sg9
(lp96
F0.0020924448966979981
aF0.0020895004272460938
aF0.0020899891853332518
aF0.002090942859649658
asg11
I4
sg12
g13
sg14
(lp97
F0.44858050346374512
asg16
F2
sg17
I10
sg18
I12000
sg19
(F0.44858050346374512
F0.45067000389099121
F0.0020895004272460938
tp98
sbsS'CreateStringsWithConcat'
p99
(iStrings
CreateStringsWithConcat
p100
(dp101
g8
I50
sg9
(lp102
F0.003486776351928711
aF0.0034893393516540528
aF0.0034854888916015627
aF0.003488790988922119
asg11
I4
sg12
g13
sg14
(lp103
F0.58117551803588863
asg16
F2
sg17
I10
sg18
I20000
sg19
(F0.58117551803588863
F0.58466100692749023
F0.0034854888916015627
tp104
sbsS'SmallLists'
p105
(iLists
SmallLists
p106
(dp107
g8
I85
sg9
(lp108
F0.0012905716896057129
aF0.0012870311737060546
aF0.0012923836708068847
aF0.0012993812561035156
asg11
I4
sg12
g13
sg14
(lp109
F0.51585097312927242
asg16
F2
sg17
I10
sg18
I8000
sg19
(F0.51585097312927242
F0.51713800430297852
F0.0012870311737060546
tp110
sbsS'CompareUnicode'
p111
(iUnicode
CompareUnicode
p112
(dp113
g8
I50
sg9
(lp114
F0.0026899933815002441
aF0.0026907920837402344
aF0.0026793956756591799
aF0.0026876449584960936
asg11
I4
sg12
g13
sg14
(lp115
F0.43460865020751954
asg16
F2
sg17
I10
sg18
I15000
sg19
(F0.43460865020751954
F0.43728804588317871
F0.0026793956756591799
tp116
sbsS'SimpleListManipulation'
p117
(iLists
SimpleListManipulation
p118
(dp119
g8
I90
sg9
(lp120
F0.002091240882873535
aF0.0020895481109619142
aF0.0020922422409057617
aF0.0020899415016174317
asg11
I4
sg12
g13
sg14
(lp121
F0.38977355957031251
asg16
F2
sg17
I10
sg18
I13000
sg19
(F0.38977355957031251
F0.39186310768127441
F0.0020895481109619142
tp122
sbsS'DictWithFloatKeys'
p123
(iDict
DictWithFloatKeys
p124
(dp125
g8
I60
sg9
(lp126
F0.0026129961013793947
aF0.0026184439659118651
aF0.0026167869567871095
aF0.0026164889335632325
asg11
I4
sg12
g13
sg14
(lp127
F0.57379705905914302
asg16
F2
sg17
I10
sg18
I15000
sg19
(F0.57379705905914302
F0.57641005516052246
F0.0026129961013793947
tp128
sbsS'CreateNewInstances'
p129
(iNewInstances
CreateNewInstances
p130
(dp131
g8
I14
sg9
(lp132
F0.0013922810554504394
aF0.001391136646270752
aF0.0014124393463134765
aF0.0014011383056640625
asg11
I4
sg12
g13
sg14
(lp133
F0.45754889249801634
asg16
F2
sg17
I10
sg18
I6000
sg19
(F0.45754889249801634
F0.45894002914428711
F0.001391136646270752
tp134
sbsS'TryExcept'
p135
(iExceptions
TryExcept
p136
(dp137
g8
I150
sg9
(lp138
F0.0024127840995788576
aF0.0024132847785949705
aF0.0024132370948791505
aF0.0024167895317077637
asg11
I4
sg12
g13
sg14
(lp139
F0.38314915895462037
asg16
F2
sg17
I10
sg18
I15000
sg19
(F0.38314915895462037
F0.38556194305419922
F0.0024127840995788576
tp140
sbsS'ComplexPythonFunctionCalls'
p141
(iCalls
ComplexPythonFunctionCalls
p142
(dp143
g8
I20
sg9
(lp144
F0.0017533421516418457
aF0.0017518401145935059
aF0.0017584443092346191
aF0.0017540454864501953
asg11
I4
sg12
g13
sg14
(lp145
F0.56159716844558716
asg16
F2
sg17
I10
sg18
I10000
sg19
(F0.56159716844558716
F0.56334900856018066
F0.0017518401145935059
tp146
sbsS'TryRaiseExcept'
p147
(iExceptions
TryRaiseExcept
p148
(dp149
g8
I8
sg9
(lp150
F0.0012852907180786132
aF0.0012946009635925293
aF0.0012846350669860839
aF0.0012846946716308593
asg11
I4
sg12
g13
sg14
(lp151
F0.4207224488258362
asg16
F2
sg17
I10
sg18
I8000
sg19
(F0.4207224488258362
F0.42200708389282227
F0.0012846350669860839
tp152
sbsS'IfThenElse'
p153
(iConstructs
IfThenElse
p154
(dp155
g8
I90
sg9
(lp156
F0.0024115920066833498
aF0.0024174928665161135
aF0.0024124503135681151
aF0.0024110436439514159
asg11
I4
sg12
g13
sg14
(lp157
F0.33016093969345095
asg16
F2
sg17
I10
sg18
I15000
sg19
(F0.33016093969345095
F0.33257198333740234
F0.0024110436439514159
tp158
sbsS'NormalInstanceAttribute'
p159
(iLookups
NormalInstanceAttribute
p160
(dp161
g8
I120
sg9
(lp162
F0.0016258955001831055
aF0.0016252517700195313
aF0.0016237497329711914
aF0.001621854305267334
asg11
I4
sg12
g13
sg14
(lp163
F0.4243031620979309
asg16
F2
sg17
I10
sg18
I10000
sg19
(F0.4243031620979309
F0.42592501640319824
F0.001621854305267334
tp164
sbsS'BuiltinFunctionCalls'
p165
(iCalls
BuiltinFunctionCalls
p166
(dp167
g8
I85
sg9
(lp168
F0.0010556459426879882
aF0.0010447502136230469
aF0.0010452985763549805
aF0.001044154167175293
asg11
I4
sg12
g13
sg14
(lp169
F0.58113491535186768
asg16
F2
sg17
I10
sg18
I6000
sg19
(F0.58113491535186768
F0.58217906951904297
F0.001044154167175293
tp170
sbsS'UnicodeMappings'
p171
(iUnicode
UnicodeMappings
p172
(dp173
g8
I36
sg9
(lp174
F0.0020896792411804199
aF0.0020608305931091309
aF0.0020899295806884764
aF0.0020632863044738768
asg11
I4
sg12
g13
sg14
(lp175
F0.32456213235855103
asg16
F2
sg17
I10
sg18
I1000
sg19
(F0.32456213235855103
F0.32662296295166016
F0.0020608305931091309
tp176
sbsS'CompareFloats'
p177
(iNumbers
CompareFloats
p178
(dp179
g8
I150
sg9
(lp180
F0.0013904929161071776
aF0.0013920426368713378
aF0.0013896465301513673
aF0.0014036417007446289
asg11
I4
sg12
g13
sg14
(lp181
F0.57715950012207029
asg16
F2
sg17
I10
sg18
I8000
sg19
(F0.57715950012207029
F0.57854914665222168
F0.0013896465301513673
tp182
sbsS'StringMappings'
p183
(iStrings
StringMappings
p184
(dp185
g8
I36
sg9
(lp186
F0.0016182899475097657
aF0.0016129970550537109
aF0.0016116023063659668
aF0.001616501808166504
asg11
I4
sg12
g13
sg14
(lp187
F0.57803856134414677
asg16
F2
sg17
I10
sg18
I7000
sg19
(F0.57803856134414677
F0.5796501636505127
F0.0016116023063659668
tp188
sbsS'TryFinally'
p189
(iWith
TryFinally
p190
(dp191
g8
I20
sg9
(lp192
F0.0012904882431030273
aF0.001288294792175293
aF0.0012877464294433593
aF0.0012898445129394531
asg11
I4
sg12
g13
sg14
(lp193
F0.50807733535766597
asg16
F2
sg17
I10
sg18
I8000
sg19
(F0.50807733535766597
F0.50936508178710938
F0.0012877464294433593
tp194
sbsS'Recursion'
p195
(iCalls
Recursion
p196
(dp197
g8
I5
sg9
(lp198
F0.0016074538230895995
aF0.0016100525856018067
aF0.0016073465347290039
aF0.0016075491905212403
asg11
I4
sg12
g13
sg14
(lp199
F0.73368747234344478
asg16
F2
sg17
I10
sg18
I10000
sg19
(F0.73368747234344478
F0.73529481887817383
F0.0016073465347290039
tp200
sbsS'SimpleLongArithmetic'
p201
(iArithmetic
SimpleLongArithmetic
p202
(dp203
g8
I110
sg9
(lp204
F0.0011435985565185548
aF0.00098314285278320321
aF0.00096189975738525391
aF0.00097924470901489258
asg11
I4
sg12
g13
sg14
(lp205
F0.42390930652618408
asg16
F2
sg17
I10
sg18
I6000
sg19
(F0.42390930652618408
F0.42487120628356934
F0.00096189975738525391
tp206
sbsS'SimpleDictManipulation'
p207
(iDict
SimpleDictManipulation
p208
(dp209
g8
I120
sg9
(lp210
F0.0016111493110656737
aF0.0016075968742370605
aF0.0016074419021606446
aF0.0016181468963623047
asg11
I4
sg12
g13
sg14
(lp211
F0.54618165493011472
asg16
F2
sg17
I10
sg18
I10000
sg19
(F0.54618165493011472
F0.54778909683227539
F0.0016074419021606446
tp212
sbsS'WithRaiseExcept'
p213
(iWith
WithRaiseExcept
p214
(dp215
g8
I8
sg9
(lp216
F0.0016215562820434571
aF0.0016156435012817383
aF0.0016193509101867676
aF0.0016154050827026367
asg11
I4
sg12
g13
sg14
(lp217
F0.87952554225921631
asg16
F2
sg17
I10
sg18
I10000
sg19
(F0.87952554225921631
F0.88114094734191895
F0.0016154050827026367
tp218
sbsS'UnicodeProperties'
p219
(iUnicode
UnicodeProperties
p220
(dp221
g8
I40
sg9
(lp222
F0.0089954853057861335
aF0.0090073347091674805
aF0.0090003848075866696
aF0.0089939355850219734
asg11
I4
sg12
g13
sg14
(lp223
F0.52455203533172612
asg16
F2
sg17
I10
sg18
I10000
sg19
(F0.52455203533172612
F0.53354597091674805
F0.0089939355850219734
tp224
sbsS'SimpleIntFloatArithmetic'
p225
(iArithmetic
SimpleIntFloatArithmetic
p226
(dp227
g8
I110
sg9
(lp228
F0.0019282460212707519
aF0.0019272446632385253
aF0.001927793025970459
aF0.0019276857376098633
asg11
I4
sg12
g13
sg14
(lp229
F0.35735262632369996
asg16
F2
sg17
I10
sg18
I12000
sg19
(F0.35735262632369996
F0.35927987098693848
F0.0019272446632385253
tp230
sbsS'CreateUnicodeWithConcat'
p231
(iUnicode
CreateUnicodeWithConcat
p232
(dp233
g8
I50
sg9
(lp234
F0.0013976454734802245
aF0.0013923048973083496
aF0.0013935446739196777
aF0.0013899922370910645
asg11
I4
sg12
g13
sg14
(lp235
F0.45762990713119506
asg16
F2
sg17
I10
sg18
I8000
sg19
(F0.45762990713119506
F0.45901989936828613
F0.0013899922370910645
tp236
sbsS'ListSlicing'
p237
(iLists
ListSlicing
p238
(dp239
g8
I175
sg9
(lp240
F0.00035914182662963865
aF0.00035483837127685546
aF0.00035353899002075193
aF0.00035784244537353518
asg11
I4
sg12
g13
sg14
(lp241
F0.48459461927413938
asg16
F2
sg17
I10
sg18
I80
sg19
(F0.48459461927413938
F0.48494815826416016
F0.00035353899002075193
tp242
sbsS'SimpleListComprehensions'
p243
(iLists
SimpleListComprehensions
p244
(dp245
g8
I6
sg9
(lp246
F0.00032893419265747072
aF0.00032879114151000975
aF0.00032713413238525388
aF0.00032608509063720704
asg11
I4
sg12
g13
sg14
(lp247
F0.48982913494110109
asg16
F2
sg17
I10
sg18
I2000
sg19
(F0.48982913494110109
F0.49015522003173828
F0.00032608509063720704
tp248
sbsS'CompareLongs'
p249
(iNumbers
CompareLongs
p250
(dp251
g8
I150
sg9
(lp252
F0.0012178421020507812
aF0.0012164354324340821
aF0.0012178778648376464
aF0.0012190341949462891
asg11
I4
sg12
g13
sg14
(lp253
F0.38559052944183347
asg16
F2
sg17
I10
sg18
I7000
sg19
(F0.38559052944183347
F0.38680696487426758
F0.0012164354324340821
tp254
sbsS'SimpleIntegerArithmetic'
p255
(iArithmetic
SimpleIntegerArithmetic
p256
(dp257
g8
I110
sg9
(lp258
F0.0019333958625793457
aF0.0019262552261352539
aF0.0019270539283752441
aF0.0019288539886474609
asg11
I4
sg12
g13
sg14
(lp259
F0.35720174312591552
asg16
F2
sg17
I10
sg18
I12000
sg19
(F0.35720174312591552
F0.35912799835205078
F0.0019262552261352539
tp260
sbsS'SpecialClassAttribute'
p261
(iLookups
SpecialClassAttribute
p262
(dp263
g8
I120
sg9
(lp264
F0.0016341924667358399
aF0.0016269922256469727
aF0.0016299962997436523
aF0.0016294002532958984
asg11
I4
sg12
g13
sg14
(lp265
F0.51598713397979734
asg16
F2
sg17
I10
sg18
I10000
sg19
(F0.51598713397979734
F0.51761412620544434
F0.0016269922256469727
tp266
sbsS'SecondImport'
p267
(iImports
SecondImport
p268
(dp269
g8
I25
sg9
(lp270
F0.00065344572067260742
aF0.00063843727111816411
aF0.00063995122909545901
aF0.00063884258270263672
asg11
I4
sg12
g13
sg14
(lp271
F0.58392958641052251
asg16
F2
sg17
I10
sg18
I4000
sg19
(F0.58392958641052251
F0.58456802368164062
F0.00063843727111816411
tp272
sbsS'WithFinally'
p273
(iWith
WithFinally
p274
(dp275
g8
I20
sg9
(lp276
F0.001293182373046875
aF0.0012970328330993651
aF0.001294088363647461
aF0.0012936353683471679
asg11
I4
sg12
g13
sg14
(lp277
F0.63387084007263184
asg16
F2
sg17
I10
sg18
I8000
sg19
(F0.63387084007263184
F0.63516402244567871
F0.001293182373046875
tp278
sbsS'TupleSlicing'
p279
(iTuples
TupleSlicing
p280
(dp281
g8
I5250
sg9
(lp282
F0.00023398399353027343
aF0.00023103952407836913
aF0.00023064613342285156
aF0.00023102760314941406
asg11
I4
sg12
g13
sg14
(lp283
F0.44751944541931155
asg16
F2
sg17
I10
sg18
I50
sg19
(F0.44751944541931155
F0.44775009155273438
F0.00023064613342285156
tp284
sbsS'SimpleFloatArithmetic'
p285
(iArithmetic
SimpleFloatArithmetic
p286
(dp287
g8
I110
sg9
(lp288
F0.0019311904907226562
aF0.0019286394119262696
aF0.0019253373146057128
aF0.0019264340400695801
asg11
I4
sg12
g13
sg14
(lp289
F0.60919464826583858
asg16
F2
sg17
I10
sg18
I12000
sg19
(F0.60919464826583858
F0.61111998558044434
F0.0019253373146057128
tp290
sbsS'StringPredicates'
p291
(iStrings
StringPredicates
p292
(dp293
g8
I70
sg9
(lp294
F0.0089687943458557125
aF0.0089630484580993652
aF0.0089695930480957024
aF0.0089738368988037109
asg11
I4
sg12
g13
sg14
(lp295
F0.5378149151802063
asg16
F2
sg17
I10
sg18
I10000
sg19
(F0.5378149151802063
F0.54677796363830566
F0.0089630484580993652
tp296
sbsS'BuiltinMethodLookup'
p297
(iLookups
BuiltinMethodLookup
p298
(dp299
g8
I150
sg9
(lp300
F0.001222538948059082
aF0.0012192845344543457
aF0.0012178897857666015
aF0.0012164831161499024
asg11
I4
sg12
g13
sg14
(lp301
F0.48245160579681395
asg16
F2
sg17
I10
sg18
I7000
sg19
(F0.48245160579681395
F0.48366808891296387
F0.0012164831161499024
tp302
sbsS'SimpleComplexArithmetic'
p303
(iArithmetic
SimpleComplexArithmetic
p304
(dp305
g8
I110
sg9
(lp306
F0.0012859344482421876
aF0.0012834906578063966
aF0.0012844324111938477
aF0.0012845277786254882
asg11
I4
sg12
g13
sg14
(lp307
F0.5157183766365051
asg16
F2
sg17
I10
sg18
I8000
sg19
(F0.5157183766365051
F0.51700186729431152
F0.0012834906578063966
tp308
sbsS'ConcatUnicode'
p309
(iUnicode
ConcatUnicode
p310
(dp311
g8
I50
sg9
(lp312
F0.0014054775238037109
aF0.0014060378074645997
aF0.0014101266860961914
aF0.0014004826545715332
asg11
I4
sg12
g13
sg14
(lp313
F0.84618757963180546
asg16
F2
sg17
I10
sg18
I6000
sg19
(F0.84618757963180546
F0.84758806228637695
F0.0014004826545715332
tp314
sbsS'CompareInternedStrings'
p315
(iStrings
CompareInternedStrings
p316
(dp317
g8
I50
sg9
(lp318
F0.0052913546562194822
aF0.0052985429763793947
aF0.0052857518196105955
aF0.0052821397781372074
asg11
I4
sg12
g13
sg14
(lp319
F0.50256779193878176
asg16
F2
sg17
I10
sg18
I30000
sg19
(F0.50256779193878176
F0.50784993171691895
F0.0052821397781372074
tp320
sbsS'CompareStrings'
p321
(iStrings
CompareStrings
p322
(dp323
g8
I50
sg9
(lp324
F0.0035617351531982422
aF0.0035550832748413087
aF0.0035587310791015624
aF0.0035580873489379885
asg11
I4
sg12
g13
sg14
(lp325
F0.44737288951873777
asg16
F2
sg17
I10
sg18
I20000
sg19
(F0.44737288951873777
F0.4509279727935791
F0.0035550832748413087
tp326
sbsS'SmallTuples'
p327
(iTuples
SmallTuples
p328
(dp329
g8
I60
sg9
(lp330
F0.0014495968818664551
aF0.0014570355415344238
aF0.001449441909790039
aF0.0014457345008850099
asg11
I4
sg12
g13
sg14
(lp331
F0.47766736745834348
asg16
F2
sg17
I10
sg18
I9000
sg19
(F0.47766736745834348
F0.47911310195922852
F0.0014457345008850099
tp332
sbsS'NormalClassAttribute'
p333
(iLookups
NormalClassAttribute
p334
(dp335
g8
I120
sg9
(lp336
F0.001626598834991455
aF0.0016215920448303222
aF0.0016217947006225586
aF0.0016223430633544923
asg11
I4
sg12
g13
sg14
(lp337
F0.53210724592208858
asg16
F2
sg17
I10
sg18
I10000
sg19
(F0.53210724592208858
F0.53372883796691895
F0.0016215920448303222
tp338
sbsS'CreateInstances'
p339
(iInstances
CreateInstances
p340
(dp341
g8
I14
sg9
(lp342
F0.0014329314231872558
aF0.0014248728752136231
aF0.0014216780662536621
aF0.0014319777488708495
asg11
I4
sg12
g13
sg14
(lp343
F0.56564642190933223
asg16
F2
sg17
I10
sg18
I8000
sg19
(F0.56564642190933223
F0.56706809997558594
F0.0014216780662536621
tp344
sbsS'DictWithStringKeys'
p345
(iDict
DictWithStringKeys
p346
(dp347
g8
I60
sg9
(lp348
F0.0034917950630187987
aF0.0034871935844421388
aF0.003486347198486328
aF0.003488445281982422
asg11
I4
sg12
g13
sg14
(lp349
F0.453153657913208
asg16
F2
sg17
I10
sg18
I20000
sg19
(F0.453153657913208
F0.45664000511169434
F0.003486347198486328
tp350
sbsS'DictCreation'
p351
(iDict
DictCreation
p352
(dp353
g8
I50
sg9
(lp354
F0.0013935565948486328
aF0.0014057517051696776
aF0.0013903379440307617
aF0.0013936877250671387
asg11
I4
sg12
g13
sg14
(lp355
F0.37078368663787842
asg16
F2
sg17
I10
sg18
I8000
sg19
(F0.37078368663787842
F0.37217402458190918
F0.0013903379440307617
tp356
sbsS'StringSlicing'
p357
(iStrings
StringSlicing
p358
(dp359
g8
I35
sg9
(lp360
F0.0027592897415161131
aF0.0027482271194458007
aF0.0027496814727783203
aF0.0027510285377502441
asg11
I4
sg12
g13
sg14
(lp361
F0.39778187274932864
asg16
F2
sg17
I10
sg18
I16000
sg19
(F0.39778187274932864
F0.40053009986877441
F0.0027482271194458007
tp362
sbssS'name'
p363
S'24.txt'
p364
sg11
I4
sg17
I10
sS'machine_details'
p365
(dp366
S'platform'
p367
S'Linux-3.18.0-25-rpi2-armv7l-with-Ubuntu-15.04-vivid'
p368
sS'executable'
p369
S'/usr/bin/python2'
p370
sS'builddate'
p371
S'Apr  2 2015 16:04:32'
p372
sS'unicode'
p373
S'UCS4'
p374
sS'implementation'
p375
S'CPython'
p376
sS'compiler'
p377
S'GCC 4.9.2'
p378
sS'bits'
p379
S'32bit'
p380
sS'processor'
p381
S'armv7l'
p382
sS'buildno'
p383
S'default'
p384
sS'python'
p385
S'2.7.9'
p386
ssg12
g13
sg16
F2
sS'roundtimes'
p387
(lp388
F30.273198950290674
asg18
I1
sS'verbose'
p389
I0
sb.