(i__main__
Benchmark
p1
(dp2
S'tests'
p3
(dp4
S'SpecialInstanceAttribute'
p5
(iLookups
SpecialInstanceAttribute
p6
(dp7
S'operations'
p8
I120
sS'overhead_times'
p9
(lp10
F0.0016080498695373534
aF0.0016068458557128907
aF0.0016123414039611816
aF0.0016091346740722656
asS'calibration_runs'
p11
I4
sS'timer'
p12
S'time.time'
p13
sS'times'
p14
(lp15
F0.64906702041625974
asS'version'
p16
F2
sS'warp'
p17
I10
sS'rounds'
p18
I10000
sS'last_timing'
p19
(F0.64906702041625974
F0.65067386627197266
F0.0016068458557128907
tp20
sbsS'PythonFunctionCalls'
p21
(iCalls
PythonFunctionCalls
p22
(dp23
g8
I55
sg9
(lp24
F0.00096299648284912107
aF0.00096863508224487305
aF0.0009652495384216309
aF0.00096049308776855467
asg11
I4
sg12
g13
sg14
(lp25
F0.49856839179992674
asg16
F2
sg17
I10
sg18
I6000
sg19
(F0.49856839179992674
F0.49952888488769531
F0.00096049308776855467
tp26
sbsS'CompareFloatsIntegers'
p27
(iNumbers
CompareFloatsIntegers
p28
(dp29
g8
I150
sg9
(lp30
F0.0009604454040527344
aF0.00096074342727661135
aF0.00095919370651245119
aF0.0010125041007995605
asg11
I4
sg12
g13
sg14
(lp31
F0.54438778162002566
asg16
F2
sg17
I10
sg18
I6000
sg19
(F0.54438778162002566
F0.54534697532653809
F0.00095919370651245119
tp32
sbsS'PythonMethodCalls'
p33
(iCalls
PythonMethodCalls
p34
(dp35
g8
I75
sg9
(lp36
F0.00049268007278442378
aF0.0004935383796691895
aF0.00049083232879638668
aF0.00049848556518554692
asg11
I4
sg12
g13
sg14
(lp37
F0.56483800411224361
asg16
F2
sg17
I10
sg18
I3000
sg19
(F0.56483800411224361
F0.56532883644104004
F0.00049083232879638668
tp38
sbsS'NestedListComprehensions'
p39
(iLists
NestedListComprehensions
p40
(dp41
g8
I6
sg9
(lp42
F0.00032304525375366212
aF0.00032243728637695315
aF0.00032433271408081053
aF0.00032284259796142576
asg11
I4
sg12
g13
sg14
(lp43
F0.57304372787475588
asg16
F2
sg17
I10
sg18
I2000
sg19
(F0.57304372787475588
F0.57336616516113281
F0.00032243728637695315
tp44
sbsS'SecondSubmoduleImport'
p45
(iImports
SecondSubmoduleImport
p46
(dp47
g8
I25
sg9
(lp48
F0.00063813924789428715
aF0.000636589527130127
aF0.0006371855735778809
aF0.00063618421554565428
asg11
I4
sg12
g13
sg14
(lp49
F0.693710720539093
asg16
F2
sg17
I10
sg18
I4000
sg19
(F0.693710720539093
F0.69434690475463867
F0.00063618421554565428
tp50
sbsS'DictWithIntegerKeys'
p51
(iDict
DictWithIntegerKeys
p52
(dp53
g8
I60
sg9
(lp54
F0.0032070398330688475
aF0.0032225966453552244
aF0.0032088875770568846
aF0.0032046914100646974
asg11
I4
sg12
g13
sg14
(lp55
F0.51405752897262569
asg16
F2
sg17
I10
sg18
I20000
sg19
(F0.51405752897262569
F0.51726222038269043
F0.0032046914100646974
tp56
sbsS'UnicodeSlicing'
p57
(iUnicode
UnicodeSlicing
p58
(dp59
g8
I35
sg9
(lp60
F0.0024223446846008299
aF0.0024185061454772951
aF0.0024212002754211426
aF0.0024198412895202635
asg11
I4
sg12
g13
sg14
(lp61
F0.61115671396255489
asg16
F2
sg17
I10
sg18
I14000
sg19
(F0.61115671396255489
F0.61357522010803223
F0.0024185061454772951
tp62
sbsS'NestedForLoops'
p63
(iConstructs
NestedForLoops
p64
(dp65
g8
I50000
sg9
(lp66
F7.1489810943603521e-05
aF7.0846080780029291e-05
aF7.3242187499999997e-05
aF7.3003768920898435e-05
asg11
I4
sg12
g13
sg14
(lp67
F0.4625150799751282
asg16
F2
sg17
I10
sg18
I30
sg19
(F0.4625150799751282
F0.4625859260559082
F7.0846080780029291e-05
tp68
sbsS'UnicodePredicates'
p69
(iUnicode
UnicodePredicates
p70
(dp71
g8
I45
sg9
(lp72
F0.010705041885375976
aF0.010699045658111573
aF0.010698342323303222
aF0.010700690746307372
asg11
I4
sg12
g13
sg14
(lp73
F0.4296617269515991
asg16
F2
sg17
I10
sg18
I12000
sg19
(F0.4296617269515991
F0.44036006927490234
F0.010698342323303222
tp74
sbsS'ForLoops'
p75
(iConstructs
ForLoops
p76
(dp77
g8
I25
sg9
(lp78
F0.00023258924484252929
aF0.00023044347763061522
aF0.00022319555282592773
aF0.00021759271621704101
asg11
I4
sg12
g13
sg14
(lp79
F0.3649743437767029
asg16
F2
sg17
I10
sg18
I1000
sg19
(F0.3649743437767029
F0.36519193649291992
F0.00021759271621704101
tp80
sbsS'ConcatStrings'
p81
(iStrings
ConcatStrings
p82
(dp83
g8
I50
sg9
(lp84
F0.0019363403320312501
aF0.0019413948059082032
aF0.0019351482391357423
aF0.0019339919090270996
asg11
I4
sg12
g13
sg14
(lp85
F0.99971801042556763
asg16
F2
sg17
I10
sg18
I10000
sg19
(F0.99971801042556763
F1.0016520023345947
F0.0019339919090270996
tp86
sbsS'SecondPackageImport'
p87
(iImports
SecondPackageImport
p88
(dp89
g8
I25
sg9
(lp90
F0.0006367921829223633
aF0.00064349174499511719
aF0.00063654184341430662
aF0.000637054443359375
asg11
I4
sg12
g13
sg14
(lp91
F0.5729003310203552
asg16
F2
sg17
I10
sg18
I4000
sg19
(F0.5729003310203552
F0.57353687286376953
F0.00063654184341430662
tp92
sbsS'CompareIntegers'
p93
(iNumbers
CompareIntegers
p94
(dp95
g8
I150
sg9
(lp96
F0.0019262552261352539
aF0.001924145221710205
aF0.0019225478172302246
aF0.0019256472587585449
asg11
I4
sg12
g13
sg14
(lp97
F0.44167858362197876
asg16
F2
sg17
I10
sg18
I12000
sg19
(F0.44167858362197876
F0.44360113143920898
F0.0019225478172302246
tp98
sbsS'CreateStringsWithConcat'
p99
(iStrings
CreateStringsWithConcat
p100
(dp101
g8
I50
sg9
(lp102
F0.0032170414924621582
aF0.0032091021537780763
aF0.0032051920890808104
aF0.0032150387763977052
asg11
I4
sg12
g13
sg14
(lp103
F0.57305966615676884
asg16
F2
sg17
I10
sg18
I20000
sg19
(F0.57305966615676884
F0.57626485824584961
F0.0032051920890808104
tp104
sbsS'SmallLists'
p105
(iLists
SmallLists
p106
(dp107
g8
I85
sg9
(lp108
F0.0012775421142578124
aF0.0012766480445861816
aF0.0012770414352416993
aF0.0012775540351867675
asg11
I4
sg12
g13
sg14
(lp109
F0.51490553617477419
asg16
F2
sg17
I10
sg18
I8000
sg19
(F0.51490553617477419
F0.51618218421936035
F0.0012766480445861816
tp110
sbsS'CompareUnicode'
p111
(iUnicode
CompareUnicode
p112
(dp113
g8
I50
sg9
(lp114
F0.0024819016456604005
aF0.0024587392807006838
aF0.0024652957916259767
aF0.0024682402610778807
asg11
I4
sg12
g13
sg14
(lp115
F0.4325352430343628
asg16
F2
sg17
I10
sg18
I15000
sg19
(F0.4325352430343628
F0.43499398231506348
F0.0024587392807006838
tp116
sbsS'SimpleListManipulation'
p117
(iLists
SimpleListManipulation
p118
(dp119
g8
I90
sg9
(lp120
F0.0020831465721130372
aF0.0020778417587280274
aF0.0020779013633728028
aF0.0020806908607482908
asg11
I4
sg12
g13
sg14
(lp121
F0.38470122814178465
asg16
F2
sg17
I10
sg18
I13000
sg19
(F0.38470122814178465
F0.3867790699005127
F0.0020778417587280274
tp122
sbsS'DictWithFloatKeys'
p123
(iDict
DictWithFloatKeys
p124
(dp125
g8
I60
sg9
(lp126
F0.0024113893508911134
aF0.0024042487144470214
aF0.0024093508720397947
aF0.0024023532867431642
asg11
I4
sg12
g13
sg14
(lp127
F0.5685376644134521
asg16
F2
sg17
I10
sg18
I15000
sg19
(F0.5685376644134521
F0.57094001770019531
F0.0024023532867431642
tp128
sbsS'CreateNewInstances'
p129
(iNewInstances
CreateNewInstances
p130
(dp131
g8
I14
sg9
(lp132
F0.0012746453285217285
aF0.0012683868408203125
aF0.0012726902961730957
aF0.001305389404296875
asg11
I4
sg12
g13
sg14
(lp133
F0.44659757614135742
asg16
F2
sg17
I10
sg18
I6000
sg19
(F0.44659757614135742
F0.44786596298217773
F0.0012683868408203125
tp134
sbsS'TryExcept'
p135
(iExceptions
TryExcept
p136
(dp137
g8
I150
sg9
(lp138
F0.0023947834968566896
aF0.0023945450782775881
aF0.0023978471755981444
aF0.0023946404457092286
asg11
I4
sg12
g13
sg14
(lp139
F0.38219059705734254
asg16
F2
sg17
I10
sg18
I15000
sg19
(F0.38219059705734254
F0.38458514213562012
F0.0023945450782775881
tp140
sbsS'ComplexPythonFunctionCalls'
p141
(iCalls
ComplexPythonFunctionCalls
p142
(dp143
g8
I20
sg9
(lp144
F0.0016118407249450684
aF0.0016078472137451172
aF0.0016127943992614747
aF0.0016083478927612304
asg11
I4
sg12
g13
sg14
(lp145
F0.5615282535552979
asg16
F2
sg17
I10
sg18
I10000
sg19
(F0.5615282535552979
F0.56313610076904297
F0.0016078472137451172
tp146
sbsS'TryRaiseExcept'
p147
(iExceptions
TryRaiseExcept
p148
(dp149
g8
I8
sg9
(lp150
F0.0012752890586853027
aF0.0012756943702697753
aF0.0012757420539855958
aF0.0012750983238220214
asg11
I4
sg12
g13
sg14
(lp151
F0.42736383676528933
asg16
F2
sg17
I10
sg18
I8000
sg19
(F0.42736383676528933
F0.42863893508911133
F0.0012750983238220214
tp152
sbsS'IfThenElse'
p153
(iConstructs
IfThenElse
p154
(dp155
g8
I90
sg9
(lp156
F0.0024116396903991698
aF0.0024049282073974609
aF0.0024029374122619628
aF0.002403843402862549
asg11
I4
sg12
g13
sg14
(lp157
F0.32809909582138064
asg16
F2
sg17
I10
sg18
I15000
sg19
(F0.32809909582138064
F0.33050203323364258
F0.0024029374122619628
tp158
sbsS'NormalInstanceAttribute'
p159
(iLookups
NormalInstanceAttribute
p160
(dp161
g8
I120
sg9
(lp162
F0.0016097545623779297
aF0.0016092419624328612
aF0.0016090035438537597
aF0.0016089439392089843
asg11
I4
sg12
g13
sg14
(lp163
F0.4200309753417969
asg16
F2
sg17
I10
sg18
I10000
sg19
(F0.4200309753417969
F0.42163991928100586
F0.0016089439392089843
tp164
sbsS'BuiltinFunctionCalls'
p165
(iCalls
BuiltinFunctionCalls
p166
(dp167
g8
I85
sg9
(lp168
F0.00096909999847412105
aF0.00096113681793212895
aF0.00096035003662109375
aF0.00096074342727661135
asg11
I4
sg12
g13
sg14
(lp169
F0.56505060195922852
asg16
F2
sg17
I10
sg18
I6000
sg19
(F0.56505060195922852
F0.56601095199584961
F0.00096035003662109375
tp170
sbsS'UnicodeMappings'
p171
(iUnicode
UnicodeMappings
p172
(dp173
g8
I36
sg9
(lp174
F0.0020700454711914062
aF0.0020538449287414553
aF0.0020468950271606444
aF0.0020502448081970216
asg11
I4
sg12
g13
sg14
(lp175
F0.32275502681732177
asg16
F2
sg17
I10
sg18
I1000
sg19
(F0.32275502681732177
F0.32480192184448242
F0.0020468950271606444
tp176
sbsS'CompareFloats'
p177
(iNumbers
CompareFloats
p178
(dp179
g8
I150
sg9
(lp180
F0.0012815833091735841
aF0.0012798428535461426
aF0.0012797951698303224
aF0.0012807965278625489
asg11
I4
sg12
g13
sg14
(lp181
F0.59564427137374876
asg16
F2
sg17
I10
sg18
I8000
sg19
(F0.59564427137374876
F0.5969240665435791
F0.0012797951698303224
tp182
sbsS'StringMappings'
p183
(iStrings
StringMappings
p184
(dp185
g8
I36
sg9
(lp186
F0.0016174912452697754
aF0.0016140460968017579
aF0.0016099572181701659
aF0.0016142964363098145
asg11
I4
sg12
g13
sg14
(lp187
F0.5762780547142029
asg16
F2
sg17
I10
sg18
I7000
sg19
(F0.5762780547142029
F0.57788801193237305
F0.0016099572181701659
tp188
sbsS'TryFinally'
p189
(iWith
TryFinally
p190
(dp191
g8
I20
sg9
(lp192
F0.0012796878814697265
aF0.0012802481651306152
aF0.0012779474258422852
aF0.0012786984443664551
asg11
I4
sg12
g13
sg14
(lp193
F0.51253411769866941
asg16
F2
sg17
I10
sg18
I8000
sg19
(F0.51253411769866941
F0.51381206512451172
F0.0012779474258422852
tp194
sbsS'Recursion'
p195
(iCalls
Recursion
p196
(dp197
g8
I5
sg9
(lp198
F0.001599729061126709
aF0.0016004323959350586
aF0.0015991806983947753
aF0.0015987873077392579
asg11
I4
sg12
g13
sg14
(lp199
F0.72516517639160161
asg16
F2
sg17
I10
sg18
I10000
sg19
(F0.72516517639160161
F0.72676396369934082
F0.0015987873077392579
tp200
sbsS'SimpleLongArithmetic'
p201
(iArithmetic
SimpleLongArithmetic
p202
(dp203
g8
I110
sg9
(lp204
F0.00095909833908081055
aF0.000964653491973877
aF0.00095700025558471675
aF0.00095754861831665039
asg11
I4
sg12
g13
sg14
(lp205
F0.42332602739334108
asg16
F2
sg17
I10
sg18
I6000
sg19
(F0.42332602739334108
F0.42428302764892578
F0.00095700025558471675
tp206
sbsS'SimpleDictManipulation'
p207
(iDict
SimpleDictManipulation
p208
(dp209
g8
I120
sg9
(lp210
F0.0016020417213439941
aF0.0016022443771362305
aF0.0015981912612915039
aF0.0015982508659362793
asg11
I4
sg12
g13
sg14
(lp211
F0.5391058206558228
asg16
F2
sg17
I10
sg18
I10000
sg19
(F0.5391058206558228
F0.54070401191711426
F0.0015981912612915039
tp212
sbsS'WithRaiseExcept'
p213
(iWith
WithRaiseExcept
p214
(dp215
g8
I8
sg9
(lp216
F0.0015990972518920899
aF0.0015995025634765625
aF0.0015991449356079102
aF0.0015985965728759766
asg11
I4
sg12
g13
sg14
(lp217
F0.87482118606567383
asg16
F2
sg17
I10
sg18
I10000
sg19
(F0.87482118606567383
F0.8764197826385498
F0.0015985965728759766
tp218
sbsS'UnicodeProperties'
p219
(iUnicode
UnicodeProperties
p220
(dp221
g8
I40
sg9
(lp222
F0.0089097023010253906
aF0.0089148998260498054
aF0.0089130520820617683
aF0.0089082002639770501
asg11
I4
sg12
g13
sg14
(lp223
F0.52140886783599849
asg16
F2
sg17
I10
sg18
I10000
sg19
(F0.52140886783599849
F0.53031706809997559
F0.0089082002639770501
tp224
sbsS'SimpleIntFloatArithmetic'
p225
(iArithmetic
SimpleIntFloatArithmetic
p226
(dp227
g8
I110
sg9
(lp228
F0.0019273996353149415
aF0.0019267916679382325
aF0.0019236445426940919
aF0.0019169449806213379
asg11
I4
sg12
g13
sg14
(lp229
F0.35383099317550659
asg16
F2
sg17
I10
sg18
I12000
sg19
(F0.35383099317550659
F0.35574793815612793
F0.0019169449806213379
tp230
sbsS'CreateUnicodeWithConcat'
p231
(iUnicode
CreateUnicodeWithConcat
p232
(dp233
g8
I50
sg9
(lp234
F0.0012809872627258302
aF0.0012812495231628418
aF0.001278996467590332
aF0.0012956976890563965
asg11
I4
sg12
g13
sg14
(lp235
F0.45754802227020264
asg16
F2
sg17
I10
sg18
I8000
sg19
(F0.45754802227020264
F0.45882701873779297
F0.001278996467590332
tp236
sbsS'ListSlicing'
p237
(iLists
ListSlicing
p238
(dp239
g8
I175
sg9
(lp240
F0.00035579204559326171
aF0.00035508871078491209
aF0.00035353899002075193
aF0.00035514831542968748
asg11
I4
sg12
g13
sg14
(lp241
F0.46757153272628782
asg16
F2
sg17
I10
sg18
I80
sg19
(F0.46757153272628782
F0.46792507171630859
F0.00035353899002075193
tp242
sbsS'SimpleListComprehensions'
p243
(iLists
SimpleListComprehensions
p244
(dp245
g8
I6
sg9
(lp246
F0.00032633543014526367
aF0.0003257274627685547
aF0.00032502412796020508
aF0.00032367706298828123
asg11
I4
sg12
g13
sg14
(lp247
F0.49093828201293943
asg16
F2
sg17
I10
sg18
I2000
sg19
(F0.49093828201293943
F0.49126195907592773
F0.00032367706298828123
tp248
sbsS'CompareLongs'
p249
(iNumbers
CompareLongs
p250
(dp251
g8
I150
sg9
(lp252
F0.0011354923248291016
aF0.0011191010475158692
aF0.0011195898056030273
aF0.0011196374893188477
asg11
I4
sg12
g13
sg14
(lp253
F0.38385704755783079
asg16
F2
sg17
I10
sg18
I7000
sg19
(F0.38385704755783079
F0.38497614860534668
F0.0011191010475158692
tp254
sbsS'SimpleIntegerArithmetic'
p255
(iArithmetic
SimpleIntegerArithmetic
p256
(dp257
g8
I110
sg9
(lp258
F0.0019181489944458008
aF0.0019158482551574706
aF0.0019209504127502442
aF0.0019180893898010254
asg11
I4
sg12
g13
sg14
(lp259
F0.35418709516525271
asg16
F2
sg17
I10
sg18
I12000
sg19
(F0.35418709516525271
F0.35610294342041016
F0.0019158482551574706
tp260
sbsS'SpecialClassAttribute'
p261
(iLookups
SpecialClassAttribute
p262
(dp263
g8
I120
sg9
(lp264
F0.0016272902488708497
aF0.0016148924827575684
aF0.0016052365303039552
aF0.0016049027442932128
asg11
I4
sg12
g13
sg14
(lp265
F0.50191725492477413
asg16
F2
sg17
I10
sg18
I10000
sg19
(F0.50191725492477413
F0.50352215766906738
F0.0016049027442932128
tp266
sbsS'SecondImport'
p267
(iImports
SecondImport
p268
(dp269
g8
I25
sg9
(lp270
F0.00063729286193847656
aF0.00063610076904296875
aF0.00063819885253906254
aF0.00063714981079101565
asg11
I4
sg12
g13
sg14
(lp271
F0.5521388053894043
asg16
F2
sg17
I10
sg18
I4000
sg19
(F0.5521388053894043
F0.55277490615844727
F0.00063610076904296875
tp272
sbsS'WithFinally'
p273
(iWith
WithFinally
p274
(dp275
g8
I20
sg9
(lp276
F0.0012799978256225586
aF0.0012786984443664551
aF0.0012848019599914552
aF0.0012781500816345214
asg11
I4
sg12
g13
sg14
(lp277
F0.63650490045547481
asg16
F2
sg17
I10
sg18
I8000
sg19
(F0.63650490045547481
F0.63778305053710938
F0.0012781500816345214
tp278
sbsS'TupleSlicing'
p279
(iTuples
TupleSlicing
p280
(dp281
g8
I5250
sg9
(lp282
F0.00023138523101806641
aF0.00023028850555419921
aF0.00023553371429443359
aF0.00022969245910644531
asg11
I4
sg12
g13
sg14
(lp283
F0.45116128921508791
asg16
F2
sg17
I10
sg18
I50
sg19
(F0.45116128921508791
F0.45139098167419434
F0.00022969245910644531
tp284
sbsS'SimpleFloatArithmetic'
p285
(iArithmetic
SimpleFloatArithmetic
p286
(dp287
g8
I110
sg9
(lp288
F0.0019210457801818847
aF0.0019172430038452148
aF0.0019180417060852052
aF0.0019173026084899902
asg11
I4
sg12
g13
sg14
(lp289
F0.6028369665145874
asg16
F2
sg17
I10
sg18
I12000
sg19
(F0.6028369665145874
F0.60475420951843262
F0.0019172430038452148
tp290
sbsS'StringPredicates'
p291
(iStrings
StringPredicates
p292
(dp293
g8
I70
sg9
(lp294
F0.0089215397834777836
aF0.0089113831520080573
aF0.0089131355285644535
aF0.0089020848274230964
asg11
I4
sg12
g13
sg14
(lp295
F0.53657196760177617
asg16
F2
sg17
I10
sg18
I10000
sg19
(F0.53657196760177617
F0.54547405242919922
F0.0089020848274230964
tp296
sbsS'BuiltinMethodLookup'
p297
(iLookups
BuiltinMethodLookup
p298
(dp299
g8
I150
sg9
(lp300
F0.0011220335960388183
aF0.0011220812797546388
aF0.0011218905448913575
aF0.0011209845542907715
asg11
I4
sg12
g13
sg14
(lp301
F0.477955162525177
asg16
F2
sg17
I10
sg18
I7000
sg19
(F0.477955162525177
F0.47907614707946777
F0.0011209845542907715
tp302
sbsS'SimpleComplexArithmetic'
p303
(iArithmetic
SimpleComplexArithmetic
p304
(dp305
g8
I110
sg9
(lp306
F0.0012786507606506348
aF0.0012761950492858887
aF0.0012813448905944825
aF0.0012824416160583496
asg11
I4
sg12
g13
sg14
(lp307
F0.51018792390823364
asg16
F2
sg17
I10
sg18
I8000
sg19
(F0.51018792390823364
F0.51146411895751953
F0.0012761950492858887
tp308
sbsS'ConcatUnicode'
p309
(iUnicode
ConcatUnicode
p310
(dp311
g8
I50
sg9
(lp312
F0.0013170361518859864
aF0.0013259410858154296
aF0.0013157367706298829
aF0.0013152837753295898
asg11
I4
sg12
g13
sg14
(lp313
F0.8071158647537231
asg16
F2
sg17
I10
sg18
I6000
sg19
(F0.8071158647537231
F0.80843114852905273
F0.0013152837753295898
tp314
sbsS'CompareInternedStrings'
p315
(iStrings
CompareInternedStrings
p316
(dp317
g8
I50
sg9
(lp318
F0.0048717021942138675
aF0.0048492074012756346
aF0.0048465967178344723
aF0.0048392534255981444
asg11
I4
sg12
g13
sg14
(lp319
F0.50185387134552006
asg16
F2
sg17
I10
sg18
I30000
sg19
(F0.50185387134552006
F0.50669312477111816
F0.0048392534255981444
tp320
sbsS'CompareStrings'
p321
(iStrings
CompareStrings
p322
(dp323
g8
I50
sg9
(lp324
F0.0032609462738037109
aF0.0032678484916687013
aF0.0032550454139709472
aF0.0032552003860473631
asg11
I4
sg12
g13
sg14
(lp325
F0.44455202817916872
asg16
F2
sg17
I10
sg18
I20000
sg19
(F0.44455202817916872
F0.44780707359313965
F0.0032550454139709472
tp326
sbsS'SmallTuples'
p327
(iTuples
SmallTuples
p328
(dp329
g8
I60
sg9
(lp330
F0.0014368772506713867
aF0.0014492273330688477
aF0.001438140869140625
aF0.0014377832412719727
asg11
I4
sg12
g13
sg14
(lp331
F0.47881610393524171
asg16
F2
sg17
I10
sg18
I9000
sg19
(F0.47881610393524171
F0.48025298118591309
F0.0014368772506713867
tp332
sbsS'NormalClassAttribute'
p333
(iLookups
NormalClassAttribute
p334
(dp335
g8
I120
sg9
(lp336
F0.0016170978546142579
aF0.0016114473342895507
aF0.0016087412834167481
aF0.0016067981719970702
asg11
I4
sg12
g13
sg14
(lp337
F0.51647725105285647
asg16
F2
sg17
I10
sg18
I10000
sg19
(F0.51647725105285647
F0.51808404922485352
F0.0016067981719970702
tp338
sbsS'CreateInstances'
p339
(iInstances
CreateInstances
p340
(dp341
g8
I14
sg9
(lp342
F0.0013121962547302246
aF0.0013052463531494141
aF0.0013651013374328612
aF0.0013127923011779785
asg11
I4
sg12
g13
sg14
(lp343
F0.54892692565917967
asg16
F2
sg17
I10
sg18
I8000
sg19
(F0.54892692565917967
F0.5502321720123291
F0.0013052463531494141
tp344
sbsS'DictWithStringKeys'
p345
(iDict
DictWithStringKeys
p346
(dp347
g8
I60
sg9
(lp348
F0.0032075405120849609
aF0.0032122969627380372
aF0.0032340884208679199
aF0.0032058954238891602
asg11
I4
sg12
g13
sg14
(lp349
F0.45030510425567627
asg16
F2
sg17
I10
sg18
I20000
sg19
(F0.45030510425567627
F0.45351099967956543
F0.0032058954238891602
tp350
sbsS'DictCreation'
p351
(iDict
DictCreation
p352
(dp353
g8
I50
sg9
(lp354
F0.0012802958488464355
aF0.0012818932533264159
aF0.0012805938720703125
aF0.0012818932533264159
asg11
I4
sg12
g13
sg14
(lp355
F0.36663056612014772
asg16
F2
sg17
I10
sg18
I8000
sg19
(F0.36663056612014772
F0.36791086196899414
F0.0012802958488464355
tp356
sbsS'StringSlicing'
p357
(iStrings
StringSlicing
p358
(dp359
g8
I35
sg9
(lp360
F0.0027306556701660158
aF0.0027311921119689943
aF0.0027285456657409669
aF0.002729952335357666
asg11
I4
sg12
g13
sg14
(lp361
F0.39866939783096311
asg16
F2
sg17
I10
sg18
I16000
sg19
(F0.39866939783096311
F0.4013979434967041
F0.0027285456657409669
tp362
sbssS'name'
p363
S'77.txt'
p364
sg11
I4
sg17
I10
sS'machine_details'
p365
(dp366
S'platform'
p367
S'Linux-3.18.0-25-rpi2-armv7l-with-Ubuntu-15.04-vivid'
p368
sS'executable'
p369
S'/usr/bin/python2'
p370
sS'builddate'
p371
S'Apr  2 2015 16:04:32'
p372
sS'unicode'
p373
S'UCS4'
p374
sS'implementation'
p375
S'CPython'
p376
sS'compiler'
p377
S'GCC 4.9.2'
p378
sS'bits'
p379
S'32bit'
p380
sS'processor'
p381
S'armv7l'
p382
sS'buildno'
p383
S'default'
p384
sS'python'
p385
S'2.7.9'
p386
ssg12
g13
sg16
F2
sS'roundtimes'
p387
(lp388
F29.906471145153048
asg18
I1
sS'verbose'
p389
I0
sb.